
build_CH32x035_Sample/CH32x035_Sample.elf:     file format elf32-littleriscv


Disassembly of section .init:

00000000 <_sinit>:

	.section	.init,"ax",@progbits
	.global	_start
	.align	1
_start:
	j	handle_reset
   0:	5140c06f          	j	c514 <handle_reset>

Disassembly of section .vector:

00000004 <_vector_base>:
	...
   c:	c4ba                	sw	a4,72(sp)
   e:	0000                	unimp
  10:	c4bc                	sw	a5,72(s1)
  12:	0000                	unimp
  14:	0000                	unimp
  16:	0000                	unimp
  18:	c4be                	sw	a5,72(sp)
	...
  22:	0000                	unimp
  24:	c4c0                	sw	s0,12(s1)
  26:	0000                	unimp
  28:	c4c2                	sw	a6,72(sp)
	...
  32:	0000                	unimp
  34:	8cd2                	mv	s9,s4
  36:	0000                	unimp
  38:	0000                	unimp
  3a:	0000                	unimp
  3c:	c394                	sw	a3,0(a5)
  3e:	0000                	unimp
  40:	0000                	unimp
  42:	0000                	unimp
  44:	c4c8                	sw	a0,12(s1)
  46:	0000                	unimp
  48:	c4ca                	sw	s2,72(sp)
  4a:	0000                	unimp
  4c:	c4cc                	sw	a1,12(s1)
  4e:	0000                	unimp
  50:	0000                	unimp
  52:	0000                	unimp
  54:	c4ce                	sw	s3,72(sp)
  56:	0000                	unimp
  58:	c4d0                	sw	a2,12(s1)
  5a:	0000                	unimp
  5c:	c4d2                	sw	s4,72(sp)
  5e:	0000                	unimp
  60:	c4d4                	sw	a3,12(s1)
  62:	0000                	unimp
  64:	c4d6                	sw	s5,72(sp)
  66:	0000                	unimp
  68:	c4d8                	sw	a4,12(s1)
  6a:	0000                	unimp
  6c:	c4da                	sw	s6,72(sp)
  6e:	0000                	unimp
  70:	c4dc                	sw	a5,12(s1)
  72:	0000                	unimp
  74:	c4de                	sw	s7,72(sp)
  76:	0000                	unimp
  78:	c4e0                	sw	s0,76(s1)
  7a:	0000                	unimp
  7c:	c4e2                	sw	s8,72(sp)
  7e:	0000                	unimp
  80:	c4e4                	sw	s1,76(s1)
  82:	0000                	unimp
  84:	c4e6                	sw	s9,72(sp)
  86:	0000                	unimp
  88:	c4e8                	sw	a0,76(s1)
  8a:	0000                	unimp
  8c:	c4ea                	sw	s10,72(sp)
  8e:	0000                	unimp
  90:	c4ec                	sw	a1,76(s1)
  92:	0000                	unimp
  94:	c4ee                	sw	s11,72(sp)
  96:	0000                	unimp
  98:	c4f0                	sw	a2,76(s1)
  9a:	0000                	unimp
  9c:	c4f2                	sw	t3,72(sp)
  9e:	0000                	unimp
  a0:	c4f4                	sw	a3,76(s1)
  a2:	0000                	unimp
  a4:	c4f6                	sw	t4,72(sp)
  a6:	0000                	unimp
  a8:	c4f8                	sw	a4,76(s1)
  aa:	0000                	unimp
  ac:	c4fa                	sw	t5,72(sp)
  ae:	0000                	unimp
  b0:	c4fc                	sw	a5,76(s1)
  b2:	0000                	unimp
  b4:	c4fe                	sw	t6,72(sp)
  b6:	0000                	unimp
  b8:	c500                	sw	s0,8(a0)
  ba:	0000                	unimp
  bc:	c502                	sw	zero,136(sp)
  be:	0000                	unimp
  c0:	c504                	sw	s1,8(a0)
  c2:	0000                	unimp
  c4:	c506                	sw	ra,136(sp)
  c6:	0000                	unimp
  c8:	c508                	sw	a0,8(a0)
  ca:	0000                	unimp
  cc:	c50a                	sw	sp,136(sp)
  ce:	0000                	unimp
  d0:	c50c                	sw	a1,8(a0)
  d2:	0000                	unimp
  d4:	c50e                	sw	gp,136(sp)
  d6:	0000                	unimp
  d8:	c510                	sw	a2,8(a0)
  da:	0000                	unimp
  dc:	c512                	sw	tp,136(sp)
	...

Disassembly of section .text:

00000100 <__get_MSTATUS>:
 * @brief   Return the Machine Status Register
 *
 * @return  mstatus value
 */
uint32_t __get_MSTATUS(void)
{
     100:	1101                	addi	sp,sp,-32
     102:	ce22                	sw	s0,28(sp)
     104:	1000                	addi	s0,sp,32
  uint32_t result;

  __ASM volatile ( "csrr %0," "mstatus" : "=r" (result) );
     106:	300027f3          	csrr	a5,mstatus
     10a:	fef42623          	sw	a5,-20(s0)
  return (result);
     10e:	fec42783          	lw	a5,-20(s0)
}
     112:	853e                	mv	a0,a5
     114:	4472                	lw	s0,28(sp)
     116:	6105                	addi	sp,sp,32
     118:	8082                	ret

0000011a <__set_MSTATUS>:
 * @param   value  - set mstatus value
 *
 * @return  none
 */
void __set_MSTATUS(uint32_t value)
{
     11a:	1101                	addi	sp,sp,-32
     11c:	ce22                	sw	s0,28(sp)
     11e:	1000                	addi	s0,sp,32
     120:	fea42623          	sw	a0,-20(s0)
  __ASM volatile ("csrw mstatus, %0" : : "r" (value) );
     124:	fec42783          	lw	a5,-20(s0)
     128:	30079073          	csrw	mstatus,a5
}
     12c:	0001                	nop
     12e:	4472                	lw	s0,28(sp)
     130:	6105                	addi	sp,sp,32
     132:	8082                	ret

00000134 <__get_MISA>:
 * @brief   Return the Machine ISA Register
 *
 * @return  misa value
 */
uint32_t __get_MISA(void)
{
     134:	1101                	addi	sp,sp,-32
     136:	ce22                	sw	s0,28(sp)
     138:	1000                	addi	s0,sp,32
  uint32_t result;

  __ASM volatile ( "csrr %0," "misa" : "=r" (result) );
     13a:	301027f3          	csrr	a5,misa
     13e:	fef42623          	sw	a5,-20(s0)
  return (result);
     142:	fec42783          	lw	a5,-20(s0)
}
     146:	853e                	mv	a0,a5
     148:	4472                	lw	s0,28(sp)
     14a:	6105                	addi	sp,sp,32
     14c:	8082                	ret

0000014e <__set_MISA>:
 * @param   value  - set misa value
 *
 * @return  none
 */
void __set_MISA(uint32_t value)
{
     14e:	1101                	addi	sp,sp,-32
     150:	ce22                	sw	s0,28(sp)
     152:	1000                	addi	s0,sp,32
     154:	fea42623          	sw	a0,-20(s0)
  __ASM volatile ("csrw misa, %0" : : "r" (value) );
     158:	fec42783          	lw	a5,-20(s0)
     15c:	30179073          	csrw	misa,a5
}
     160:	0001                	nop
     162:	4472                	lw	s0,28(sp)
     164:	6105                	addi	sp,sp,32
     166:	8082                	ret

00000168 <__get_MTVEC>:
 * @brief   Return the Machine Trap-Vector Base-Address Register
 *
 * @return  mtvec value
 */
uint32_t __get_MTVEC(void)
{
     168:	1101                	addi	sp,sp,-32
     16a:	ce22                	sw	s0,28(sp)
     16c:	1000                	addi	s0,sp,32
  uint32_t result;

  __ASM volatile ( "csrr %0," "mtvec" : "=r" (result) );
     16e:	305027f3          	csrr	a5,mtvec
     172:	fef42623          	sw	a5,-20(s0)
  return (result);
     176:	fec42783          	lw	a5,-20(s0)
}
     17a:	853e                	mv	a0,a5
     17c:	4472                	lw	s0,28(sp)
     17e:	6105                	addi	sp,sp,32
     180:	8082                	ret

00000182 <__set_MTVEC>:
 * @param   value  - set mtvec value
 *
 * @return  none
 */
void __set_MTVEC(uint32_t value)
{
     182:	1101                	addi	sp,sp,-32
     184:	ce22                	sw	s0,28(sp)
     186:	1000                	addi	s0,sp,32
     188:	fea42623          	sw	a0,-20(s0)
  __ASM volatile ("csrw mtvec, %0" : : "r" (value) );
     18c:	fec42783          	lw	a5,-20(s0)
     190:	30579073          	csrw	mtvec,a5
}
     194:	0001                	nop
     196:	4472                	lw	s0,28(sp)
     198:	6105                	addi	sp,sp,32
     19a:	8082                	ret

0000019c <__get_MSCRATCH>:
 * @brief   Return the Machine Seratch Register
 *
 * @return  mscratch value
 */
uint32_t __get_MSCRATCH(void)
{
     19c:	1101                	addi	sp,sp,-32
     19e:	ce22                	sw	s0,28(sp)
     1a0:	1000                	addi	s0,sp,32
  uint32_t result;

  __ASM volatile ( "csrr %0," "mscratch" : "=r" (result) );
     1a2:	340027f3          	csrr	a5,mscratch
     1a6:	fef42623          	sw	a5,-20(s0)
  return (result);
     1aa:	fec42783          	lw	a5,-20(s0)
}
     1ae:	853e                	mv	a0,a5
     1b0:	4472                	lw	s0,28(sp)
     1b2:	6105                	addi	sp,sp,32
     1b4:	8082                	ret

000001b6 <__set_MSCRATCH>:
 * @param   value  - set mscratch value
 *
 * @return  none
 */
void __set_MSCRATCH(uint32_t value)
{
     1b6:	1101                	addi	sp,sp,-32
     1b8:	ce22                	sw	s0,28(sp)
     1ba:	1000                	addi	s0,sp,32
     1bc:	fea42623          	sw	a0,-20(s0)
  __ASM volatile ("csrw mscratch, %0" : : "r" (value) );
     1c0:	fec42783          	lw	a5,-20(s0)
     1c4:	34079073          	csrw	mscratch,a5
}
     1c8:	0001                	nop
     1ca:	4472                	lw	s0,28(sp)
     1cc:	6105                	addi	sp,sp,32
     1ce:	8082                	ret

000001d0 <__get_MEPC>:
 * @brief   Return the Machine Exception Program Register
 *
 * @return  mepc value
 */
uint32_t __get_MEPC(void)
{
     1d0:	1101                	addi	sp,sp,-32
     1d2:	ce22                	sw	s0,28(sp)
     1d4:	1000                	addi	s0,sp,32
  uint32_t result;

  __ASM volatile ( "csrr %0," "mepc" : "=r" (result) );
     1d6:	341027f3          	csrr	a5,mepc
     1da:	fef42623          	sw	a5,-20(s0)
  return (result);
     1de:	fec42783          	lw	a5,-20(s0)
}
     1e2:	853e                	mv	a0,a5
     1e4:	4472                	lw	s0,28(sp)
     1e6:	6105                	addi	sp,sp,32
     1e8:	8082                	ret

000001ea <__set_MEPC>:
 * @brief   Set the Machine Exception Program Register
 *
 * @return  mepc value
 */
void __set_MEPC(uint32_t value)
{
     1ea:	1101                	addi	sp,sp,-32
     1ec:	ce22                	sw	s0,28(sp)
     1ee:	1000                	addi	s0,sp,32
     1f0:	fea42623          	sw	a0,-20(s0)
  __ASM volatile ("csrw mepc, %0" : : "r" (value) );
     1f4:	fec42783          	lw	a5,-20(s0)
     1f8:	34179073          	csrw	mepc,a5
}
     1fc:	0001                	nop
     1fe:	4472                	lw	s0,28(sp)
     200:	6105                	addi	sp,sp,32
     202:	8082                	ret

00000204 <__get_MCAUSE>:
 * @brief   Return the Machine Cause Register
 *
 * @return  mcause value
 */
uint32_t __get_MCAUSE(void)
{
     204:	1101                	addi	sp,sp,-32
     206:	ce22                	sw	s0,28(sp)
     208:	1000                	addi	s0,sp,32
  uint32_t result;

  __ASM volatile ( "csrr %0," "mcause" : "=r" (result) );
     20a:	342027f3          	csrr	a5,mcause
     20e:	fef42623          	sw	a5,-20(s0)
  return (result);
     212:	fec42783          	lw	a5,-20(s0)
}
     216:	853e                	mv	a0,a5
     218:	4472                	lw	s0,28(sp)
     21a:	6105                	addi	sp,sp,32
     21c:	8082                	ret

0000021e <__set_MCAUSE>:
 * @brief   Set the Machine Cause Register
 *
 * @return  mcause value
 */
void __set_MCAUSE(uint32_t value)
{
     21e:	1101                	addi	sp,sp,-32
     220:	ce22                	sw	s0,28(sp)
     222:	1000                	addi	s0,sp,32
     224:	fea42623          	sw	a0,-20(s0)
  __ASM volatile ("csrw mcause, %0" : : "r" (value) );
     228:	fec42783          	lw	a5,-20(s0)
     22c:	34279073          	csrw	mcause,a5
}
     230:	0001                	nop
     232:	4472                	lw	s0,28(sp)
     234:	6105                	addi	sp,sp,32
     236:	8082                	ret

00000238 <__get_MTVAL>:
 * @brief   Return the Machine Trap Value Register
 *
 * @return  mtval value
 */
uint32_t __get_MTVAL(void)
{
     238:	1101                	addi	sp,sp,-32
     23a:	ce22                	sw	s0,28(sp)
     23c:	1000                	addi	s0,sp,32
  uint32_t result;

  __ASM volatile ( "csrr %0," "mtval" : "=r" (result) );
     23e:	343027f3          	csrr	a5,mtval
     242:	fef42623          	sw	a5,-20(s0)
  return (result);
     246:	fec42783          	lw	a5,-20(s0)
}
     24a:	853e                	mv	a0,a5
     24c:	4472                	lw	s0,28(sp)
     24e:	6105                	addi	sp,sp,32
     250:	8082                	ret

00000252 <__set_MTVAL>:
 * @brief   Set the Machine Trap Value Register
 *
 * @return  mtval value
 */
void __set_MTVAL(uint32_t value)
{
     252:	1101                	addi	sp,sp,-32
     254:	ce22                	sw	s0,28(sp)
     256:	1000                	addi	s0,sp,32
     258:	fea42623          	sw	a0,-20(s0)
  __ASM volatile ("csrw mtval, %0" : : "r" (value) );
     25c:	fec42783          	lw	a5,-20(s0)
     260:	34379073          	csrw	mtval,a5
}
     264:	0001                	nop
     266:	4472                	lw	s0,28(sp)
     268:	6105                	addi	sp,sp,32
     26a:	8082                	ret

0000026c <__get_MVENDORID>:
 * @brief   Return Vendor ID Register
 *
 * @return  mvendorid value
 */
uint32_t __get_MVENDORID(void)
{
     26c:	1101                	addi	sp,sp,-32
     26e:	ce22                	sw	s0,28(sp)
     270:	1000                	addi	s0,sp,32
  uint32_t result;

  __ASM volatile ( "csrr %0," "mvendorid" : "=r" (result) );
     272:	f11027f3          	csrr	a5,mvendorid
     276:	fef42623          	sw	a5,-20(s0)
  return (result);
     27a:	fec42783          	lw	a5,-20(s0)
}
     27e:	853e                	mv	a0,a5
     280:	4472                	lw	s0,28(sp)
     282:	6105                	addi	sp,sp,32
     284:	8082                	ret

00000286 <__get_MARCHID>:
 * @brief   Return Machine Architecture ID Register
 *
 * @return  marchid value
 */
uint32_t __get_MARCHID(void)
{
     286:	1101                	addi	sp,sp,-32
     288:	ce22                	sw	s0,28(sp)
     28a:	1000                	addi	s0,sp,32
  uint32_t result;

  __ASM volatile ( "csrr %0," "marchid" : "=r" (result) );
     28c:	f12027f3          	csrr	a5,marchid
     290:	fef42623          	sw	a5,-20(s0)
  return (result);
     294:	fec42783          	lw	a5,-20(s0)
}
     298:	853e                	mv	a0,a5
     29a:	4472                	lw	s0,28(sp)
     29c:	6105                	addi	sp,sp,32
     29e:	8082                	ret

000002a0 <__get_MIMPID>:
 * @brief   Return Machine Implementation ID Register
 *
 * @return  mimpid value
 */
uint32_t __get_MIMPID(void)
{
     2a0:	1101                	addi	sp,sp,-32
     2a2:	ce22                	sw	s0,28(sp)
     2a4:	1000                	addi	s0,sp,32
  uint32_t result;

  __ASM volatile ( "csrr %0," "mimpid" : "=r" (result) );
     2a6:	f13027f3          	csrr	a5,mimpid
     2aa:	fef42623          	sw	a5,-20(s0)
  return (result);
     2ae:	fec42783          	lw	a5,-20(s0)
}
     2b2:	853e                	mv	a0,a5
     2b4:	4472                	lw	s0,28(sp)
     2b6:	6105                	addi	sp,sp,32
     2b8:	8082                	ret

000002ba <__get_MHARTID>:
 * @brief   Return Hart ID Register
 *
 * @return  mhartid value
 */
uint32_t __get_MHARTID(void)
{
     2ba:	1101                	addi	sp,sp,-32
     2bc:	ce22                	sw	s0,28(sp)
     2be:	1000                	addi	s0,sp,32
  uint32_t result;

  __ASM volatile ( "csrr %0," "mhartid" : "=r" (result) );
     2c0:	f14027f3          	csrr	a5,mhartid
     2c4:	fef42623          	sw	a5,-20(s0)
  return (result);
     2c8:	fec42783          	lw	a5,-20(s0)
}
     2cc:	853e                	mv	a0,a5
     2ce:	4472                	lw	s0,28(sp)
     2d0:	6105                	addi	sp,sp,32
     2d2:	8082                	ret

000002d4 <__get_SP>:
 * @brief   Return SP Register
 *
 * @return  SP value
 */
uint32_t __get_SP(void)
{
     2d4:	1101                	addi	sp,sp,-32
     2d6:	ce22                	sw	s0,28(sp)
     2d8:	1000                	addi	s0,sp,32
  uint32_t result;

  __ASM volatile ( "mv %0," "sp" : "=r"(result) : );
     2da:	878a                	mv	a5,sp
     2dc:	fef42623          	sw	a5,-20(s0)
  return (result);
     2e0:	fec42783          	lw	a5,-20(s0)
}
     2e4:	853e                	mv	a0,a5
     2e6:	4472                	lw	s0,28(sp)
     2e8:	6105                	addi	sp,sp,32
     2ea:	8082                	ret

000002ec <SystemInit>:
 *        update the SystemCoreClock variable.
 *
 * @return  none
 */
void SystemInit (void)
{
     2ec:	1141                	addi	sp,sp,-16
     2ee:	c606                	sw	ra,12(sp)
     2f0:	c422                	sw	s0,8(sp)
     2f2:	0800                	addi	s0,sp,16
  RCC->CTLR |= (uint32_t)0x00000001;
     2f4:	400217b7          	lui	a5,0x40021
     2f8:	4398                	lw	a4,0(a5)
     2fa:	400217b7          	lui	a5,0x40021
     2fe:	00176713          	ori	a4,a4,1
     302:	c398                	sw	a4,0(a5)
  RCC->CFGR0 |= (uint32_t)0x00000050;
     304:	400217b7          	lui	a5,0x40021
     308:	43d8                	lw	a4,4(a5)
     30a:	400217b7          	lui	a5,0x40021
     30e:	05076713          	ori	a4,a4,80
     312:	c3d8                	sw	a4,4(a5)
  RCC->CFGR0 &= (uint32_t)0xF8FFFF5F;
     314:	400217b7          	lui	a5,0x40021
     318:	43d4                	lw	a3,4(a5)
     31a:	400217b7          	lui	a5,0x40021
     31e:	f9000737          	lui	a4,0xf9000
     322:	f5f70713          	addi	a4,a4,-161 # f8ffff5f <_eusrstack+0xd8ffbf5f>
     326:	8f75                	and	a4,a4,a3
     328:	c3d8                	sw	a4,4(a5)
  SetSysClock();
     32a:	2079                	jal	3b8 <SetSysClock>
}
     32c:	0001                	nop
     32e:	40b2                	lw	ra,12(sp)
     330:	4422                	lw	s0,8(sp)
     332:	0141                	addi	sp,sp,16
     334:	8082                	ret

00000336 <SystemCoreClockUpdate>:
 * @brief   Update SystemCoreClock variable according to Clock Register Values.
 *
 * @return  none
 */
void SystemCoreClockUpdate (void)
{
     336:	1101                	addi	sp,sp,-32
     338:	ce22                	sw	s0,28(sp)
     33a:	1000                	addi	s0,sp,32
    uint32_t tmp = 0;
     33c:	fe042623          	sw	zero,-20(s0)

    SystemCoreClock = HSI_VALUE;
     340:	200007b7          	lui	a5,0x20000
     344:	02dc7737          	lui	a4,0x2dc7
     348:	c0070713          	addi	a4,a4,-1024 # 2dc6c00 <_data_lma+0x2db79f4>
     34c:	02e7a023          	sw	a4,32(a5) # 20000020 <SystemCoreClock>
    tmp = AHBPrescTable[((RCC->CFGR0 & RCC_HPRE) >> 4)];
     350:	400217b7          	lui	a5,0x40021
     354:	43dc                	lw	a5,4(a5)
     356:	8391                	srli	a5,a5,0x4
     358:	00f7f713          	andi	a4,a5,15
     35c:	200007b7          	lui	a5,0x20000
     360:	00078793          	mv	a5,a5
     364:	97ba                	add	a5,a5,a4
     366:	0007c783          	lbu	a5,0(a5) # 20000000 <_data_vma>
     36a:	0ff7f793          	andi	a5,a5,255
     36e:	fef42623          	sw	a5,-20(s0)

    if(((RCC->CFGR0 & RCC_HPRE) >> 4) < 8)
     372:	400217b7          	lui	a5,0x40021
     376:	43dc                	lw	a5,4(a5)
     378:	0807f793          	andi	a5,a5,128
     37c:	ef91                	bnez	a5,398 <SystemCoreClockUpdate+0x62>
    {
        SystemCoreClock /= tmp;
     37e:	200007b7          	lui	a5,0x20000
     382:	0207a703          	lw	a4,32(a5) # 20000020 <SystemCoreClock>
     386:	fec42783          	lw	a5,-20(s0)
     38a:	02f75733          	divu	a4,a4,a5
     38e:	200007b7          	lui	a5,0x20000
     392:	02e7a023          	sw	a4,32(a5) # 20000020 <SystemCoreClock>
    }
    else
    {
        SystemCoreClock >>= tmp;
    }
}
     396:	a829                	j	3b0 <SystemCoreClockUpdate+0x7a>
        SystemCoreClock >>= tmp;
     398:	200007b7          	lui	a5,0x20000
     39c:	0207a703          	lw	a4,32(a5) # 20000020 <SystemCoreClock>
     3a0:	fec42783          	lw	a5,-20(s0)
     3a4:	00f75733          	srl	a4,a4,a5
     3a8:	200007b7          	lui	a5,0x20000
     3ac:	02e7a023          	sw	a4,32(a5) # 20000020 <SystemCoreClock>
}
     3b0:	0001                	nop
     3b2:	4472                	lw	s0,28(sp)
     3b4:	6105                	addi	sp,sp,32
     3b6:	8082                	ret

000003b8 <SetSysClock>:
 * @brief   Configures the System clock frequency, HCLK prescalers.
 *
 * @return  none
 */
static void SetSysClock(void)
{
     3b8:	1141                	addi	sp,sp,-16
     3ba:	c606                	sw	ra,12(sp)
     3bc:	c422                	sw	s0,8(sp)
     3be:	0800                	addi	s0,sp,16
#elif defined SYSCLK_FREQ_16MHz_HSI
    SetSysClockTo16_HSI();
#elif defined SYSCLK_FREQ_24MHz_HSI
    SetSysClockTo24_HSI();
#elif defined SYSCLK_FREQ_48MHz_HSI
    SetSysClockTo48_HSI();
     3c0:	2031                	jal	3cc <SetSysClockTo48_HSI>

#endif
}
     3c2:	0001                	nop
     3c4:	40b2                	lw	ra,12(sp)
     3c6:	4422                	lw	s0,8(sp)
     3c8:	0141                	addi	sp,sp,16
     3ca:	8082                	ret

000003cc <SetSysClockTo48_HSI>:
 * @brief   Sets System clock frequency to 48MHz and configure HCLK prescalers.
 *
 * @return  none
 */
static void SetSysClockTo48_HSI(void)
{
     3cc:	1141                	addi	sp,sp,-16
     3ce:	c622                	sw	s0,12(sp)
     3d0:	0800                	addi	s0,sp,16
    /* Flash 2 wait state */
    FLASH->ACTLR &= (uint32_t)((uint32_t)~FLASH_ACTLR_LATENCY);
     3d2:	400227b7          	lui	a5,0x40022
     3d6:	4398                	lw	a4,0(a5)
     3d8:	400227b7          	lui	a5,0x40022
     3dc:	9b71                	andi	a4,a4,-4
     3de:	c398                	sw	a4,0(a5)
    FLASH->ACTLR |= (uint32_t)FLASH_ACTLR_LATENCY_2;
     3e0:	400227b7          	lui	a5,0x40022
     3e4:	4398                	lw	a4,0(a5)
     3e6:	400227b7          	lui	a5,0x40022
     3ea:	00276713          	ori	a4,a4,2
     3ee:	c398                	sw	a4,0(a5)

    /* HCLK = SYSCLK = APB1 */
    RCC->CFGR0 &= (uint32_t)0xFFFFFF0F;
     3f0:	400217b7          	lui	a5,0x40021
     3f4:	43d8                	lw	a4,4(a5)
     3f6:	400217b7          	lui	a5,0x40021
     3fa:	f0f77713          	andi	a4,a4,-241
     3fe:	c3d8                	sw	a4,4(a5)
    RCC->CFGR0 |= (uint32_t)RCC_HPRE_DIV1;
     400:	40021737          	lui	a4,0x40021
     404:	400217b7          	lui	a5,0x40021
     408:	4358                	lw	a4,4(a4)
     40a:	c3d8                	sw	a4,4(a5)
}
     40c:	0001                	nop
     40e:	4432                	lw	s0,12(sp)
     410:	0141                	addi	sp,sp,16
     412:	8082                	ret

00000414 <ADC_DeInit>:
 * @param   ADCx - where x can be 1 to select the ADC peripheral.
 *
 * @return  none
 */
void ADC_DeInit(ADC_TypeDef *ADCx)
{
     414:	1101                	addi	sp,sp,-32
     416:	ce06                	sw	ra,28(sp)
     418:	cc22                	sw	s0,24(sp)
     41a:	1000                	addi	s0,sp,32
     41c:	fea42623          	sw	a0,-20(s0)
    if(ADCx == ADC1)
     420:	fec42703          	lw	a4,-20(s0)
     424:	400127b7          	lui	a5,0x40012
     428:	40078793          	addi	a5,a5,1024 # 40012400 <_eusrstack+0x2000e400>
     42c:	00f71c63          	bne	a4,a5,444 <ADC_DeInit+0x30>
    {
        RCC_APB2PeriphResetCmd(RCC_APB2Periph_ADC1, ENABLE);
     430:	4585                	li	a1,1
     432:	20000513          	li	a0,512
     436:	754040ef          	jal	ra,4b8a <RCC_APB2PeriphResetCmd>
        RCC_APB2PeriphResetCmd(RCC_APB2Periph_ADC1, DISABLE);
     43a:	4581                	li	a1,0
     43c:	20000513          	li	a0,512
     440:	74a040ef          	jal	ra,4b8a <RCC_APB2PeriphResetCmd>
    }
}
     444:	0001                	nop
     446:	40f2                	lw	ra,28(sp)
     448:	4462                	lw	s0,24(sp)
     44a:	6105                	addi	sp,sp,32
     44c:	8082                	ret

0000044e <ADC_Init>:
 *        peripheral.
 *
 * @return  none
 */
void ADC_Init(ADC_TypeDef *ADCx, ADC_InitTypeDef *ADC_InitStruct)
{
     44e:	7179                	addi	sp,sp,-48
     450:	d622                	sw	s0,44(sp)
     452:	1800                	addi	s0,sp,48
     454:	fca42e23          	sw	a0,-36(s0)
     458:	fcb42c23          	sw	a1,-40(s0)
    uint32_t tmpreg1 = 0;
     45c:	fe042623          	sw	zero,-20(s0)
    uint8_t  tmpreg2 = 0;
     460:	fe0405a3          	sb	zero,-21(s0)

    tmpreg1 = ADCx->CTLR1;
     464:	fdc42783          	lw	a5,-36(s0)
     468:	43dc                	lw	a5,4(a5)
     46a:	fef42623          	sw	a5,-20(s0)
    tmpreg1 &= CTLR1_CLEAR_Mask;
     46e:	fec42703          	lw	a4,-20(s0)
     472:	e0f107b7          	lui	a5,0xe0f10
     476:	eff78793          	addi	a5,a5,-257 # e0f0feff <_eusrstack+0xc0f0beff>
     47a:	8ff9                	and	a5,a5,a4
     47c:	fef42623          	sw	a5,-20(s0)
    tmpreg1 |= (uint32_t)(ADC_InitStruct->ADC_Mode | (uint32_t)ADC_InitStruct->ADC_OutputBuffer |
     480:	fd842783          	lw	a5,-40(s0)
     484:	4398                	lw	a4,0(a5)
     486:	fd842783          	lw	a5,-40(s0)
     48a:	4f9c                	lw	a5,24(a5)
     48c:	8f5d                	or	a4,a4,a5
                          (uint32_t)ADC_InitStruct->ADC_Pga | ((uint32_t)ADC_InitStruct->ADC_ScanConvMode << 8));
     48e:	fd842783          	lw	a5,-40(s0)
     492:	4fdc                	lw	a5,28(a5)
    tmpreg1 |= (uint32_t)(ADC_InitStruct->ADC_Mode | (uint32_t)ADC_InitStruct->ADC_OutputBuffer |
     494:	8f5d                	or	a4,a4,a5
                          (uint32_t)ADC_InitStruct->ADC_Pga | ((uint32_t)ADC_InitStruct->ADC_ScanConvMode << 8));
     496:	fd842783          	lw	a5,-40(s0)
     49a:	43dc                	lw	a5,4(a5)
     49c:	07a2                	slli	a5,a5,0x8
    tmpreg1 |= (uint32_t)(ADC_InitStruct->ADC_Mode | (uint32_t)ADC_InitStruct->ADC_OutputBuffer |
     49e:	8fd9                	or	a5,a5,a4
     4a0:	fec42703          	lw	a4,-20(s0)
     4a4:	8fd9                	or	a5,a5,a4
     4a6:	fef42623          	sw	a5,-20(s0)
    ADCx->CTLR1 = tmpreg1;
     4aa:	fdc42783          	lw	a5,-36(s0)
     4ae:	fec42703          	lw	a4,-20(s0)
     4b2:	c3d8                	sw	a4,4(a5)

    tmpreg1 = ADCx->CTLR2;
     4b4:	fdc42783          	lw	a5,-36(s0)
     4b8:	479c                	lw	a5,8(a5)
     4ba:	fef42623          	sw	a5,-20(s0)
    tmpreg1 &= CTLR2_CLEAR_Mask;
     4be:	fec42703          	lw	a4,-20(s0)
     4c2:	fff1f7b7          	lui	a5,0xfff1f
     4c6:	7fd78793          	addi	a5,a5,2045 # fff1f7fd <_eusrstack+0xdff1b7fd>
     4ca:	8ff9                	and	a5,a5,a4
     4cc:	fef42623          	sw	a5,-20(s0)
    tmpreg1 |= (uint32_t)(ADC_InitStruct->ADC_DataAlign | ADC_InitStruct->ADC_ExternalTrigConv |
     4d0:	fd842783          	lw	a5,-40(s0)
     4d4:	4b98                	lw	a4,16(a5)
     4d6:	fd842783          	lw	a5,-40(s0)
     4da:	47dc                	lw	a5,12(a5)
     4dc:	8f5d                	or	a4,a4,a5
                          ((uint32_t)ADC_InitStruct->ADC_ContinuousConvMode << 1));
     4de:	fd842783          	lw	a5,-40(s0)
     4e2:	479c                	lw	a5,8(a5)
     4e4:	0786                	slli	a5,a5,0x1
    tmpreg1 |= (uint32_t)(ADC_InitStruct->ADC_DataAlign | ADC_InitStruct->ADC_ExternalTrigConv |
     4e6:	8fd9                	or	a5,a5,a4
     4e8:	fec42703          	lw	a4,-20(s0)
     4ec:	8fd9                	or	a5,a5,a4
     4ee:	fef42623          	sw	a5,-20(s0)
    ADCx->CTLR2 = tmpreg1;
     4f2:	fdc42783          	lw	a5,-36(s0)
     4f6:	fec42703          	lw	a4,-20(s0)
     4fa:	c798                	sw	a4,8(a5)

    tmpreg1 = ADCx->RSQR1;
     4fc:	fdc42783          	lw	a5,-36(s0)
     500:	57dc                	lw	a5,44(a5)
     502:	fef42623          	sw	a5,-20(s0)
    tmpreg1 &= RSQR1_CLEAR_Mask;
     506:	fec42703          	lw	a4,-20(s0)
     50a:	ff1007b7          	lui	a5,0xff100
     50e:	17fd                	addi	a5,a5,-1
     510:	8ff9                	and	a5,a5,a4
     512:	fef42623          	sw	a5,-20(s0)
    tmpreg2 |= (uint8_t)(ADC_InitStruct->ADC_NbrOfChannel - (uint8_t)1);
     516:	fd842783          	lw	a5,-40(s0)
     51a:	0147c783          	lbu	a5,20(a5) # ff100014 <_eusrstack+0xdf0fc014>
     51e:	17fd                	addi	a5,a5,-1
     520:	0ff7f713          	andi	a4,a5,255
     524:	feb44783          	lbu	a5,-21(s0)
     528:	8fd9                	or	a5,a5,a4
     52a:	fef405a3          	sb	a5,-21(s0)
    tmpreg1 |= (uint32_t)tmpreg2 << 20;
     52e:	feb44783          	lbu	a5,-21(s0)
     532:	07d2                	slli	a5,a5,0x14
     534:	fec42703          	lw	a4,-20(s0)
     538:	8fd9                	or	a5,a5,a4
     53a:	fef42623          	sw	a5,-20(s0)
    ADCx->RSQR1 = tmpreg1;
     53e:	fdc42783          	lw	a5,-36(s0)
     542:	fec42703          	lw	a4,-20(s0)
     546:	d7d8                	sw	a4,44(a5)
}
     548:	0001                	nop
     54a:	5432                	lw	s0,44(sp)
     54c:	6145                	addi	sp,sp,48
     54e:	8082                	ret

00000550 <ADC_StructInit>:
 *        peripheral.
 *
 * @return  none
 */
void ADC_StructInit(ADC_InitTypeDef *ADC_InitStruct)
{
     550:	1101                	addi	sp,sp,-32
     552:	ce22                	sw	s0,28(sp)
     554:	1000                	addi	s0,sp,32
     556:	fea42623          	sw	a0,-20(s0)
    ADC_InitStruct->ADC_Mode = ADC_Mode_Independent;
     55a:	fec42783          	lw	a5,-20(s0)
     55e:	0007a023          	sw	zero,0(a5)
    ADC_InitStruct->ADC_ScanConvMode = DISABLE;
     562:	fec42783          	lw	a5,-20(s0)
     566:	0007a223          	sw	zero,4(a5)
    ADC_InitStruct->ADC_ContinuousConvMode = DISABLE;
     56a:	fec42783          	lw	a5,-20(s0)
     56e:	0007a423          	sw	zero,8(a5)
    ADC_InitStruct->ADC_ExternalTrigConv = ADC_ExternalTrigConv_T1_CC1;
     572:	fec42783          	lw	a5,-20(s0)
     576:	00020737          	lui	a4,0x20
     57a:	c7d8                	sw	a4,12(a5)
    ADC_InitStruct->ADC_DataAlign = ADC_DataAlign_Right;
     57c:	fec42783          	lw	a5,-20(s0)
     580:	0007a823          	sw	zero,16(a5)
    ADC_InitStruct->ADC_NbrOfChannel = 1;
     584:	fec42783          	lw	a5,-20(s0)
     588:	4705                	li	a4,1
     58a:	00e78a23          	sb	a4,20(a5)
}
     58e:	0001                	nop
     590:	4472                	lw	s0,28(sp)
     592:	6105                	addi	sp,sp,32
     594:	8082                	ret

00000596 <ADC_Cmd>:
 *          NewState - ENABLE or DISABLE.
 *
 * @return  none
 */
void ADC_Cmd(ADC_TypeDef *ADCx, FunctionalState NewState)
{
     596:	1101                	addi	sp,sp,-32
     598:	ce22                	sw	s0,28(sp)
     59a:	1000                	addi	s0,sp,32
     59c:	fea42623          	sw	a0,-20(s0)
     5a0:	feb42423          	sw	a1,-24(s0)
    if(NewState != DISABLE)
     5a4:	fe842783          	lw	a5,-24(s0)
     5a8:	cb91                	beqz	a5,5bc <ADC_Cmd+0x26>
    {
        ADCx->CTLR2 |= CTLR2_ADON_Set;
     5aa:	fec42783          	lw	a5,-20(s0)
     5ae:	479c                	lw	a5,8(a5)
     5b0:	0017e713          	ori	a4,a5,1
     5b4:	fec42783          	lw	a5,-20(s0)
     5b8:	c798                	sw	a4,8(a5)
    }
    else
    {
        ADCx->CTLR2 &= CTLR2_ADON_Reset;
    }
}
     5ba:	a809                	j	5cc <ADC_Cmd+0x36>
        ADCx->CTLR2 &= CTLR2_ADON_Reset;
     5bc:	fec42783          	lw	a5,-20(s0)
     5c0:	479c                	lw	a5,8(a5)
     5c2:	ffe7f713          	andi	a4,a5,-2
     5c6:	fec42783          	lw	a5,-20(s0)
     5ca:	c798                	sw	a4,8(a5)
}
     5cc:	0001                	nop
     5ce:	4472                	lw	s0,28(sp)
     5d0:	6105                	addi	sp,sp,32
     5d2:	8082                	ret

000005d4 <ADC_DMACmd>:
 *          NewState - ENABLE or DISABLE.
 *
 * @return  none
 */
void ADC_DMACmd(ADC_TypeDef *ADCx, FunctionalState NewState)
{
     5d4:	1101                	addi	sp,sp,-32
     5d6:	ce22                	sw	s0,28(sp)
     5d8:	1000                	addi	s0,sp,32
     5da:	fea42623          	sw	a0,-20(s0)
     5de:	feb42423          	sw	a1,-24(s0)
    if(NewState != DISABLE)
     5e2:	fe842783          	lw	a5,-24(s0)
     5e6:	cb91                	beqz	a5,5fa <ADC_DMACmd+0x26>
    {
        ADCx->CTLR2 |= CTLR2_DMA_Set;
     5e8:	fec42783          	lw	a5,-20(s0)
     5ec:	479c                	lw	a5,8(a5)
     5ee:	1007e713          	ori	a4,a5,256
     5f2:	fec42783          	lw	a5,-20(s0)
     5f6:	c798                	sw	a4,8(a5)
    }
    else
    {
        ADCx->CTLR2 &= CTLR2_DMA_Reset;
    }
}
     5f8:	a809                	j	60a <ADC_DMACmd+0x36>
        ADCx->CTLR2 &= CTLR2_DMA_Reset;
     5fa:	fec42783          	lw	a5,-20(s0)
     5fe:	479c                	lw	a5,8(a5)
     600:	eff7f713          	andi	a4,a5,-257
     604:	fec42783          	lw	a5,-20(s0)
     608:	c798                	sw	a4,8(a5)
}
     60a:	0001                	nop
     60c:	4472                	lw	s0,28(sp)
     60e:	6105                	addi	sp,sp,32
     610:	8082                	ret

00000612 <ADC_ITConfig>:
 *          NewState - ENABLE or DISABLE.
 *
 * @return  none
 */
void ADC_ITConfig(ADC_TypeDef *ADCx, uint16_t ADC_IT, FunctionalState NewState)
{
     612:	7179                	addi	sp,sp,-48
     614:	d622                	sw	s0,44(sp)
     616:	1800                	addi	s0,sp,48
     618:	fca42e23          	sw	a0,-36(s0)
     61c:	87ae                	mv	a5,a1
     61e:	fcc42a23          	sw	a2,-44(s0)
     622:	fcf41d23          	sh	a5,-38(s0)
    uint8_t itmask = 0;
     626:	fe0407a3          	sb	zero,-17(s0)

    itmask = (uint8_t)ADC_IT;
     62a:	fda45783          	lhu	a5,-38(s0)
     62e:	fef407a3          	sb	a5,-17(s0)

    if(NewState != DISABLE)
     632:	fd442783          	lw	a5,-44(s0)
     636:	cb99                	beqz	a5,64c <ADC_ITConfig+0x3a>
    {
        ADCx->CTLR1 |= itmask;
     638:	fdc42783          	lw	a5,-36(s0)
     63c:	43d8                	lw	a4,4(a5)
     63e:	fef44783          	lbu	a5,-17(s0)
     642:	8f5d                	or	a4,a4,a5
     644:	fdc42783          	lw	a5,-36(s0)
     648:	c3d8                	sw	a4,4(a5)
    }
    else
    {
        ADCx->CTLR1 &= (~(uint32_t)itmask);
    }
}
     64a:	a821                	j	662 <ADC_ITConfig+0x50>
        ADCx->CTLR1 &= (~(uint32_t)itmask);
     64c:	fdc42783          	lw	a5,-36(s0)
     650:	43d8                	lw	a4,4(a5)
     652:	fef44783          	lbu	a5,-17(s0)
     656:	fff7c793          	not	a5,a5
     65a:	8f7d                	and	a4,a4,a5
     65c:	fdc42783          	lw	a5,-36(s0)
     660:	c3d8                	sw	a4,4(a5)
}
     662:	0001                	nop
     664:	5432                	lw	s0,44(sp)
     666:	6145                	addi	sp,sp,48
     668:	8082                	ret

0000066a <ADC_SoftwareStartConvCmd>:
 *          NewState - ENABLE or DISABLE.
 *
 * @return  None
 */
void ADC_SoftwareStartConvCmd(ADC_TypeDef *ADCx, FunctionalState NewState)
{
     66a:	1101                	addi	sp,sp,-32
     66c:	ce22                	sw	s0,28(sp)
     66e:	1000                	addi	s0,sp,32
     670:	fea42623          	sw	a0,-20(s0)
     674:	feb42423          	sw	a1,-24(s0)
    if(NewState != DISABLE)
     678:	fe842783          	lw	a5,-24(s0)
     67c:	cb99                	beqz	a5,692 <ADC_SoftwareStartConvCmd+0x28>
    {
        ADCx->CTLR2 |= CTLR2_EXTTRIG_SWSTART_Set;
     67e:	fec42783          	lw	a5,-20(s0)
     682:	4798                	lw	a4,8(a5)
     684:	005007b7          	lui	a5,0x500
     688:	8f5d                	or	a4,a4,a5
     68a:	fec42783          	lw	a5,-20(s0)
     68e:	c798                	sw	a4,8(a5)
    }
    else
    {
        ADCx->CTLR2 &= CTLR2_EXTTRIG_SWSTART_Reset;
    }
}
     690:	a819                	j	6a6 <ADC_SoftwareStartConvCmd+0x3c>
        ADCx->CTLR2 &= CTLR2_EXTTRIG_SWSTART_Reset;
     692:	fec42783          	lw	a5,-20(s0)
     696:	4798                	lw	a4,8(a5)
     698:	ffb007b7          	lui	a5,0xffb00
     69c:	17fd                	addi	a5,a5,-1
     69e:	8f7d                	and	a4,a4,a5
     6a0:	fec42783          	lw	a5,-20(s0)
     6a4:	c798                	sw	a4,8(a5)
}
     6a6:	0001                	nop
     6a8:	4472                	lw	s0,28(sp)
     6aa:	6105                	addi	sp,sp,32
     6ac:	8082                	ret

000006ae <ADC_GetSoftwareStartConvStatus>:
 *
 * @return  FlagStatus - SET or RESET.
 */

FlagStatus ADC_GetSoftwareStartConvStatus(ADC_TypeDef *ADCx)
{
     6ae:	7179                	addi	sp,sp,-48
     6b0:	d622                	sw	s0,44(sp)
     6b2:	1800                	addi	s0,sp,48
     6b4:	fca42e23          	sw	a0,-36(s0)
    FlagStatus bitstatus = RESET;
     6b8:	fe042623          	sw	zero,-20(s0)

    if((ADCx->CTLR2 & CTLR2_SWSTART_Set) != (uint32_t)RESET)
     6bc:	fdc42783          	lw	a5,-36(s0)
     6c0:	4798                	lw	a4,8(a5)
     6c2:	004007b7          	lui	a5,0x400
     6c6:	8ff9                	and	a5,a5,a4
     6c8:	c789                	beqz	a5,6d2 <ADC_GetSoftwareStartConvStatus+0x24>
    {
        bitstatus = SET;
     6ca:	4785                	li	a5,1
     6cc:	fef42623          	sw	a5,-20(s0)
     6d0:	a019                	j	6d6 <ADC_GetSoftwareStartConvStatus+0x28>
    }
    else
    {
        bitstatus = RESET;
     6d2:	fe042623          	sw	zero,-20(s0)
    }

    return bitstatus;
     6d6:	fec42783          	lw	a5,-20(s0)
}
     6da:	853e                	mv	a0,a5
     6dc:	5432                	lw	s0,44(sp)
     6de:	6145                	addi	sp,sp,48
     6e0:	8082                	ret

000006e2 <ADC_DiscModeChannelCountConfig>:
 *            count value(1-8).
 *
 * @return  None
 */
void ADC_DiscModeChannelCountConfig(ADC_TypeDef *ADCx, uint8_t Number)
{
     6e2:	7179                	addi	sp,sp,-48
     6e4:	d622                	sw	s0,44(sp)
     6e6:	1800                	addi	s0,sp,48
     6e8:	fca42e23          	sw	a0,-36(s0)
     6ec:	87ae                	mv	a5,a1
     6ee:	fcf40da3          	sb	a5,-37(s0)
    uint32_t tmpreg1 = 0;
     6f2:	fe042623          	sw	zero,-20(s0)
    uint32_t tmpreg2 = 0;
     6f6:	fe042423          	sw	zero,-24(s0)

    tmpreg1 = ADCx->CTLR1;
     6fa:	fdc42783          	lw	a5,-36(s0)
     6fe:	43dc                	lw	a5,4(a5)
     700:	fef42623          	sw	a5,-20(s0)
    tmpreg1 &= CTLR1_DISCNUM_Reset;
     704:	fec42703          	lw	a4,-20(s0)
     708:	77c9                	lui	a5,0xffff2
     70a:	17fd                	addi	a5,a5,-1
     70c:	8ff9                	and	a5,a5,a4
     70e:	fef42623          	sw	a5,-20(s0)
    tmpreg2 = Number - 1;
     712:	fdb44783          	lbu	a5,-37(s0)
     716:	17fd                	addi	a5,a5,-1
     718:	fef42423          	sw	a5,-24(s0)
    tmpreg1 |= tmpreg2 << 13;
     71c:	fe842783          	lw	a5,-24(s0)
     720:	07b6                	slli	a5,a5,0xd
     722:	fec42703          	lw	a4,-20(s0)
     726:	8fd9                	or	a5,a5,a4
     728:	fef42623          	sw	a5,-20(s0)
    ADCx->CTLR1 = tmpreg1;
     72c:	fdc42783          	lw	a5,-36(s0)
     730:	fec42703          	lw	a4,-20(s0)
     734:	c3d8                	sw	a4,4(a5)
}
     736:	0001                	nop
     738:	5432                	lw	s0,44(sp)
     73a:	6145                	addi	sp,sp,48
     73c:	8082                	ret

0000073e <ADC_DiscModeCmd>:
 *          NewState - ENABLE or DISABLE.
 *
 * @return  None
 */
void ADC_DiscModeCmd(ADC_TypeDef *ADCx, FunctionalState NewState)
{
     73e:	1101                	addi	sp,sp,-32
     740:	ce22                	sw	s0,28(sp)
     742:	1000                	addi	s0,sp,32
     744:	fea42623          	sw	a0,-20(s0)
     748:	feb42423          	sw	a1,-24(s0)
    if(NewState != DISABLE)
     74c:	fe842783          	lw	a5,-24(s0)
     750:	cf81                	beqz	a5,768 <ADC_DiscModeCmd+0x2a>
    {
        ADCx->CTLR1 |= CTLR1_DISCEN_Set;
     752:	fec42783          	lw	a5,-20(s0)
     756:	43d8                	lw	a4,4(a5)
     758:	6785                	lui	a5,0x1
     75a:	80078793          	addi	a5,a5,-2048 # 800 <__stack_size>
     75e:	8f5d                	or	a4,a4,a5
     760:	fec42783          	lw	a5,-20(s0)
     764:	c3d8                	sw	a4,4(a5)
    }
    else
    {
        ADCx->CTLR1 &= CTLR1_DISCEN_Reset;
    }
}
     766:	a819                	j	77c <ADC_DiscModeCmd+0x3e>
        ADCx->CTLR1 &= CTLR1_DISCEN_Reset;
     768:	fec42783          	lw	a5,-20(s0)
     76c:	43d8                	lw	a4,4(a5)
     76e:	77fd                	lui	a5,0xfffff
     770:	7ff78793          	addi	a5,a5,2047 # fffff7ff <_eusrstack+0xdfffb7ff>
     774:	8f7d                	and	a4,a4,a5
     776:	fec42783          	lw	a5,-20(s0)
     77a:	c3d8                	sw	a4,4(a5)
}
     77c:	0001                	nop
     77e:	4472                	lw	s0,28(sp)
     780:	6105                	addi	sp,sp,32
     782:	8082                	ret

00000784 <ADC_RegularChannelConfig>:
 *            ADC_SampleTime_11Cycles - Sample time equal to 11 cycles.
 *
 * @return  None
 */
void ADC_RegularChannelConfig(ADC_TypeDef *ADCx, uint8_t ADC_Channel, uint8_t Rank, uint8_t ADC_SampleTime)
{
     784:	7179                	addi	sp,sp,-48
     786:	d622                	sw	s0,44(sp)
     788:	1800                	addi	s0,sp,48
     78a:	fca42e23          	sw	a0,-36(s0)
     78e:	87ae                	mv	a5,a1
     790:	8736                	mv	a4,a3
     792:	fcf40da3          	sb	a5,-37(s0)
     796:	87b2                	mv	a5,a2
     798:	fcf40d23          	sb	a5,-38(s0)
     79c:	87ba                	mv	a5,a4
     79e:	fcf40ca3          	sb	a5,-39(s0)
    uint32_t tmpreg1 = 0, tmpreg2 = 0;
     7a2:	fe042623          	sw	zero,-20(s0)
     7a6:	fe042423          	sw	zero,-24(s0)

    if(ADC_Channel > ADC_Channel_9)
     7aa:	fdb44703          	lbu	a4,-37(s0)
     7ae:	47a5                	li	a5,9
     7b0:	06e7f663          	bgeu	a5,a4,81c <__stack_size+0x1c>
    {
        tmpreg1 = ADCx->SAMPTR1;
     7b4:	fdc42783          	lw	a5,-36(s0)
     7b8:	47dc                	lw	a5,12(a5)
     7ba:	fef42623          	sw	a5,-20(s0)
        tmpreg2 = SAMPTR1_SMP_Set << (3 * (ADC_Channel - 10));
     7be:	fdb44783          	lbu	a5,-37(s0)
     7c2:	ff678713          	addi	a4,a5,-10
     7c6:	87ba                	mv	a5,a4
     7c8:	0786                	slli	a5,a5,0x1
     7ca:	97ba                	add	a5,a5,a4
     7cc:	471d                	li	a4,7
     7ce:	00f717b3          	sll	a5,a4,a5
     7d2:	fef42423          	sw	a5,-24(s0)
        tmpreg1 &= ~tmpreg2;
     7d6:	fe842783          	lw	a5,-24(s0)
     7da:	fff7c793          	not	a5,a5
     7de:	fec42703          	lw	a4,-20(s0)
     7e2:	8ff9                	and	a5,a5,a4
     7e4:	fef42623          	sw	a5,-20(s0)
        tmpreg2 = (uint32_t)ADC_SampleTime << (3 * (ADC_Channel - 10));
     7e8:	fd944683          	lbu	a3,-39(s0)
     7ec:	fdb44783          	lbu	a5,-37(s0)
     7f0:	ff678713          	addi	a4,a5,-10
     7f4:	87ba                	mv	a5,a4
     7f6:	0786                	slli	a5,a5,0x1
     7f8:	97ba                	add	a5,a5,a4
     7fa:	00f697b3          	sll	a5,a3,a5
     7fe:	fef42423          	sw	a5,-24(s0)
        tmpreg1 |= tmpreg2;
     802:	fec42703          	lw	a4,-20(s0)
     806:	fe842783          	lw	a5,-24(s0)
     80a:	8fd9                	or	a5,a5,a4
     80c:	fef42623          	sw	a5,-20(s0)
        ADCx->SAMPTR1 = tmpreg1;
     810:	fdc42783          	lw	a5,-36(s0)
     814:	fec42703          	lw	a4,-20(s0)
     818:	c7d8                	sw	a4,12(a5)
     81a:	a085                	j	87a <__stack_size+0x7a>
    }
    else
    {
        tmpreg1 = ADCx->SAMPTR2;
     81c:	fdc42783          	lw	a5,-36(s0)
     820:	4b9c                	lw	a5,16(a5)
     822:	fef42623          	sw	a5,-20(s0)
        tmpreg2 = SAMPTR2_SMP_Set << (3 * ADC_Channel);
     826:	fdb44703          	lbu	a4,-37(s0)
     82a:	87ba                	mv	a5,a4
     82c:	0786                	slli	a5,a5,0x1
     82e:	97ba                	add	a5,a5,a4
     830:	471d                	li	a4,7
     832:	00f717b3          	sll	a5,a4,a5
     836:	fef42423          	sw	a5,-24(s0)
        tmpreg1 &= ~tmpreg2;
     83a:	fe842783          	lw	a5,-24(s0)
     83e:	fff7c793          	not	a5,a5
     842:	fec42703          	lw	a4,-20(s0)
     846:	8ff9                	and	a5,a5,a4
     848:	fef42623          	sw	a5,-20(s0)
        tmpreg2 = (uint32_t)ADC_SampleTime << (3 * ADC_Channel);
     84c:	fd944683          	lbu	a3,-39(s0)
     850:	fdb44703          	lbu	a4,-37(s0)
     854:	87ba                	mv	a5,a4
     856:	0786                	slli	a5,a5,0x1
     858:	97ba                	add	a5,a5,a4
     85a:	00f697b3          	sll	a5,a3,a5
     85e:	fef42423          	sw	a5,-24(s0)
        tmpreg1 |= tmpreg2;
     862:	fec42703          	lw	a4,-20(s0)
     866:	fe842783          	lw	a5,-24(s0)
     86a:	8fd9                	or	a5,a5,a4
     86c:	fef42623          	sw	a5,-20(s0)
        ADCx->SAMPTR2 = tmpreg1;
     870:	fdc42783          	lw	a5,-36(s0)
     874:	fec42703          	lw	a4,-20(s0)
     878:	cb98                	sw	a4,16(a5)
    }

    if(Rank < 7)
     87a:	fda44703          	lbu	a4,-38(s0)
     87e:	4799                	li	a5,6
     880:	06e7e663          	bltu	a5,a4,8ec <__stack_size+0xec>
    {
        tmpreg1 = ADCx->RSQR3;
     884:	fdc42783          	lw	a5,-36(s0)
     888:	5bdc                	lw	a5,52(a5)
     88a:	fef42623          	sw	a5,-20(s0)
        tmpreg2 = RSQR3_SQ_Set << (5 * (Rank - 1));
     88e:	fda44783          	lbu	a5,-38(s0)
     892:	fff78713          	addi	a4,a5,-1
     896:	87ba                	mv	a5,a4
     898:	078a                	slli	a5,a5,0x2
     89a:	97ba                	add	a5,a5,a4
     89c:	477d                	li	a4,31
     89e:	00f717b3          	sll	a5,a4,a5
     8a2:	fef42423          	sw	a5,-24(s0)
        tmpreg1 &= ~tmpreg2;
     8a6:	fe842783          	lw	a5,-24(s0)
     8aa:	fff7c793          	not	a5,a5
     8ae:	fec42703          	lw	a4,-20(s0)
     8b2:	8ff9                	and	a5,a5,a4
     8b4:	fef42623          	sw	a5,-20(s0)
        tmpreg2 = (uint32_t)ADC_Channel << (5 * (Rank - 1));
     8b8:	fdb44683          	lbu	a3,-37(s0)
     8bc:	fda44783          	lbu	a5,-38(s0)
     8c0:	fff78713          	addi	a4,a5,-1
     8c4:	87ba                	mv	a5,a4
     8c6:	078a                	slli	a5,a5,0x2
     8c8:	97ba                	add	a5,a5,a4
     8ca:	00f697b3          	sll	a5,a3,a5
     8ce:	fef42423          	sw	a5,-24(s0)
        tmpreg1 |= tmpreg2;
     8d2:	fec42703          	lw	a4,-20(s0)
     8d6:	fe842783          	lw	a5,-24(s0)
     8da:	8fd9                	or	a5,a5,a4
     8dc:	fef42623          	sw	a5,-20(s0)
        ADCx->RSQR3 = tmpreg1;
     8e0:	fdc42783          	lw	a5,-36(s0)
     8e4:	fec42703          	lw	a4,-20(s0)
     8e8:	dbd8                	sw	a4,52(a5)
        tmpreg1 &= ~tmpreg2;
        tmpreg2 = (uint32_t)ADC_Channel << (5 * (Rank - 13));
        tmpreg1 |= tmpreg2;
        ADCx->RSQR1 = tmpreg1;
    }
}
     8ea:	a8e9                	j	9c4 <__stack_size+0x1c4>
    else if(Rank < 13)
     8ec:	fda44703          	lbu	a4,-38(s0)
     8f0:	47b1                	li	a5,12
     8f2:	06e7e663          	bltu	a5,a4,95e <__stack_size+0x15e>
        tmpreg1 = ADCx->RSQR2;
     8f6:	fdc42783          	lw	a5,-36(s0)
     8fa:	5b9c                	lw	a5,48(a5)
     8fc:	fef42623          	sw	a5,-20(s0)
        tmpreg2 = RSQR2_SQ_Set << (5 * (Rank - 7));
     900:	fda44783          	lbu	a5,-38(s0)
     904:	ff978713          	addi	a4,a5,-7
     908:	87ba                	mv	a5,a4
     90a:	078a                	slli	a5,a5,0x2
     90c:	97ba                	add	a5,a5,a4
     90e:	477d                	li	a4,31
     910:	00f717b3          	sll	a5,a4,a5
     914:	fef42423          	sw	a5,-24(s0)
        tmpreg1 &= ~tmpreg2;
     918:	fe842783          	lw	a5,-24(s0)
     91c:	fff7c793          	not	a5,a5
     920:	fec42703          	lw	a4,-20(s0)
     924:	8ff9                	and	a5,a5,a4
     926:	fef42623          	sw	a5,-20(s0)
        tmpreg2 = (uint32_t)ADC_Channel << (5 * (Rank - 7));
     92a:	fdb44683          	lbu	a3,-37(s0)
     92e:	fda44783          	lbu	a5,-38(s0)
     932:	ff978713          	addi	a4,a5,-7
     936:	87ba                	mv	a5,a4
     938:	078a                	slli	a5,a5,0x2
     93a:	97ba                	add	a5,a5,a4
     93c:	00f697b3          	sll	a5,a3,a5
     940:	fef42423          	sw	a5,-24(s0)
        tmpreg1 |= tmpreg2;
     944:	fec42703          	lw	a4,-20(s0)
     948:	fe842783          	lw	a5,-24(s0)
     94c:	8fd9                	or	a5,a5,a4
     94e:	fef42623          	sw	a5,-20(s0)
        ADCx->RSQR2 = tmpreg1;
     952:	fdc42783          	lw	a5,-36(s0)
     956:	fec42703          	lw	a4,-20(s0)
     95a:	db98                	sw	a4,48(a5)
}
     95c:	a0a5                	j	9c4 <__stack_size+0x1c4>
        tmpreg1 = ADCx->RSQR1;
     95e:	fdc42783          	lw	a5,-36(s0)
     962:	57dc                	lw	a5,44(a5)
     964:	fef42623          	sw	a5,-20(s0)
        tmpreg2 = RSQR1_SQ_Set << (5 * (Rank - 13));
     968:	fda44783          	lbu	a5,-38(s0)
     96c:	ff378713          	addi	a4,a5,-13
     970:	87ba                	mv	a5,a4
     972:	078a                	slli	a5,a5,0x2
     974:	97ba                	add	a5,a5,a4
     976:	477d                	li	a4,31
     978:	00f717b3          	sll	a5,a4,a5
     97c:	fef42423          	sw	a5,-24(s0)
        tmpreg1 &= ~tmpreg2;
     980:	fe842783          	lw	a5,-24(s0)
     984:	fff7c793          	not	a5,a5
     988:	fec42703          	lw	a4,-20(s0)
     98c:	8ff9                	and	a5,a5,a4
     98e:	fef42623          	sw	a5,-20(s0)
        tmpreg2 = (uint32_t)ADC_Channel << (5 * (Rank - 13));
     992:	fdb44683          	lbu	a3,-37(s0)
     996:	fda44783          	lbu	a5,-38(s0)
     99a:	ff378713          	addi	a4,a5,-13
     99e:	87ba                	mv	a5,a4
     9a0:	078a                	slli	a5,a5,0x2
     9a2:	97ba                	add	a5,a5,a4
     9a4:	00f697b3          	sll	a5,a3,a5
     9a8:	fef42423          	sw	a5,-24(s0)
        tmpreg1 |= tmpreg2;
     9ac:	fec42703          	lw	a4,-20(s0)
     9b0:	fe842783          	lw	a5,-24(s0)
     9b4:	8fd9                	or	a5,a5,a4
     9b6:	fef42623          	sw	a5,-20(s0)
        ADCx->RSQR1 = tmpreg1;
     9ba:	fdc42783          	lw	a5,-36(s0)
     9be:	fec42703          	lw	a4,-20(s0)
     9c2:	d7d8                	sw	a4,44(a5)
}
     9c4:	0001                	nop
     9c6:	5432                	lw	s0,44(sp)
     9c8:	6145                	addi	sp,sp,48
     9ca:	8082                	ret

000009cc <ADC_ExternalTrigConvCmd>:
 *          NewState - ENABLE or DISABLE.
 *
 * @return  None
 */
void ADC_ExternalTrigConvCmd(ADC_TypeDef *ADCx, FunctionalState NewState)
{
     9cc:	1101                	addi	sp,sp,-32
     9ce:	ce22                	sw	s0,28(sp)
     9d0:	1000                	addi	s0,sp,32
     9d2:	fea42623          	sw	a0,-20(s0)
     9d6:	feb42423          	sw	a1,-24(s0)
    if(NewState != DISABLE)
     9da:	fe842783          	lw	a5,-24(s0)
     9de:	cb99                	beqz	a5,9f4 <ADC_ExternalTrigConvCmd+0x28>
    {
        ADCx->CTLR2 |= CTLR2_EXTTRIG_Set;
     9e0:	fec42783          	lw	a5,-20(s0)
     9e4:	4798                	lw	a4,8(a5)
     9e6:	001007b7          	lui	a5,0x100
     9ea:	8f5d                	or	a4,a4,a5
     9ec:	fec42783          	lw	a5,-20(s0)
     9f0:	c798                	sw	a4,8(a5)
    }
    else
    {
        ADCx->CTLR2 &= CTLR2_EXTTRIG_Reset;
    }
}
     9f2:	a819                	j	a08 <ADC_ExternalTrigConvCmd+0x3c>
        ADCx->CTLR2 &= CTLR2_EXTTRIG_Reset;
     9f4:	fec42783          	lw	a5,-20(s0)
     9f8:	4798                	lw	a4,8(a5)
     9fa:	fff007b7          	lui	a5,0xfff00
     9fe:	17fd                	addi	a5,a5,-1
     a00:	8f7d                	and	a4,a4,a5
     a02:	fec42783          	lw	a5,-20(s0)
     a06:	c798                	sw	a4,8(a5)
}
     a08:	0001                	nop
     a0a:	4472                	lw	s0,28(sp)
     a0c:	6105                	addi	sp,sp,32
     a0e:	8082                	ret

00000a10 <ADC_GetConversionValue>:
 * @param   ADCx - where x can be 1 to select the ADC peripheral.
 *
 * @return  ADCx->RDATAR - The Data conversion value.
 */
uint16_t ADC_GetConversionValue(ADC_TypeDef *ADCx)
{
     a10:	1101                	addi	sp,sp,-32
     a12:	ce22                	sw	s0,28(sp)
     a14:	1000                	addi	s0,sp,32
     a16:	fea42623          	sw	a0,-20(s0)
    return (uint16_t)ADCx->RDATAR;
     a1a:	fec42783          	lw	a5,-20(s0)
     a1e:	47fc                	lw	a5,76(a5)
     a20:	07c2                	slli	a5,a5,0x10
     a22:	83c1                	srli	a5,a5,0x10
}
     a24:	853e                	mv	a0,a5
     a26:	4472                	lw	s0,28(sp)
     a28:	6105                	addi	sp,sp,32
     a2a:	8082                	ret

00000a2c <ADC_GetDualModeConversionValue>:
 * @brief   Returns the last ADC1 conversion result data in dual mode.
 *
 * @return  RDATAR_ADDRESS - The Data conversion value.
 */
uint32_t ADC_GetDualModeConversionValue(void)
{
     a2c:	1141                	addi	sp,sp,-16
     a2e:	c622                	sw	s0,12(sp)
     a30:	0800                	addi	s0,sp,16
    return (*(__IO uint32_t *)RDATAR_ADDRESS);
     a32:	400127b7          	lui	a5,0x40012
     a36:	44c78793          	addi	a5,a5,1100 # 4001244c <_eusrstack+0x2000e44c>
     a3a:	439c                	lw	a5,0(a5)
}
     a3c:	853e                	mv	a0,a5
     a3e:	4432                	lw	s0,12(sp)
     a40:	0141                	addi	sp,sp,16
     a42:	8082                	ret

00000a44 <ADC_AutoInjectedConvCmd>:
 *          NewState - ENABLE or DISABLE.
 *
 * @return  None
 */
void ADC_AutoInjectedConvCmd(ADC_TypeDef *ADCx, FunctionalState NewState)
{
     a44:	1101                	addi	sp,sp,-32
     a46:	ce22                	sw	s0,28(sp)
     a48:	1000                	addi	s0,sp,32
     a4a:	fea42623          	sw	a0,-20(s0)
     a4e:	feb42423          	sw	a1,-24(s0)
    if(NewState != DISABLE)
     a52:	fe842783          	lw	a5,-24(s0)
     a56:	cb91                	beqz	a5,a6a <ADC_AutoInjectedConvCmd+0x26>
    {
        ADCx->CTLR1 |= CTLR1_JAUTO_Set;
     a58:	fec42783          	lw	a5,-20(s0)
     a5c:	43dc                	lw	a5,4(a5)
     a5e:	4007e713          	ori	a4,a5,1024
     a62:	fec42783          	lw	a5,-20(s0)
     a66:	c3d8                	sw	a4,4(a5)
    }
    else
    {
        ADCx->CTLR1 &= CTLR1_JAUTO_Reset;
    }
}
     a68:	a809                	j	a7a <ADC_AutoInjectedConvCmd+0x36>
        ADCx->CTLR1 &= CTLR1_JAUTO_Reset;
     a6a:	fec42783          	lw	a5,-20(s0)
     a6e:	43dc                	lw	a5,4(a5)
     a70:	bff7f713          	andi	a4,a5,-1025
     a74:	fec42783          	lw	a5,-20(s0)
     a78:	c3d8                	sw	a4,4(a5)
}
     a7a:	0001                	nop
     a7c:	4472                	lw	s0,28(sp)
     a7e:	6105                	addi	sp,sp,32
     a80:	8082                	ret

00000a82 <ADC_InjectedDiscModeCmd>:
 *          NewState - ENABLE or DISABLE.
 *
 * @return  None
 */
void ADC_InjectedDiscModeCmd(ADC_TypeDef *ADCx, FunctionalState NewState)
{
     a82:	1101                	addi	sp,sp,-32
     a84:	ce22                	sw	s0,28(sp)
     a86:	1000                	addi	s0,sp,32
     a88:	fea42623          	sw	a0,-20(s0)
     a8c:	feb42423          	sw	a1,-24(s0)
    if(NewState != DISABLE)
     a90:	fe842783          	lw	a5,-24(s0)
     a94:	cb91                	beqz	a5,aa8 <ADC_InjectedDiscModeCmd+0x26>
    {
        ADCx->CTLR1 |= CTLR1_JDISCEN_Set;
     a96:	fec42783          	lw	a5,-20(s0)
     a9a:	43d8                	lw	a4,4(a5)
     a9c:	6785                	lui	a5,0x1
     a9e:	8f5d                	or	a4,a4,a5
     aa0:	fec42783          	lw	a5,-20(s0)
     aa4:	c3d8                	sw	a4,4(a5)
    }
    else
    {
        ADCx->CTLR1 &= CTLR1_JDISCEN_Reset;
    }
}
     aa6:	a811                	j	aba <ADC_InjectedDiscModeCmd+0x38>
        ADCx->CTLR1 &= CTLR1_JDISCEN_Reset;
     aa8:	fec42783          	lw	a5,-20(s0)
     aac:	43d8                	lw	a4,4(a5)
     aae:	77fd                	lui	a5,0xfffff
     ab0:	17fd                	addi	a5,a5,-1
     ab2:	8f7d                	and	a4,a4,a5
     ab4:	fec42783          	lw	a5,-20(s0)
     ab8:	c3d8                	sw	a4,4(a5)
}
     aba:	0001                	nop
     abc:	4472                	lw	s0,28(sp)
     abe:	6105                	addi	sp,sp,32
     ac0:	8082                	ret

00000ac2 <ADC_ExternalTrigInjectedConvConfig>:
 *        by software and not by external trigger.
 *
 * @return  None
 */
void ADC_ExternalTrigInjectedConvConfig(ADC_TypeDef *ADCx, uint32_t ADC_ExternalTrigInjecConv)
{
     ac2:	7179                	addi	sp,sp,-48
     ac4:	d622                	sw	s0,44(sp)
     ac6:	1800                	addi	s0,sp,48
     ac8:	fca42e23          	sw	a0,-36(s0)
     acc:	fcb42c23          	sw	a1,-40(s0)
    uint32_t tmpreg = 0;
     ad0:	fe042623          	sw	zero,-20(s0)

    tmpreg = ADCx->CTLR2;
     ad4:	fdc42783          	lw	a5,-36(s0)
     ad8:	479c                	lw	a5,8(a5)
     ada:	fef42623          	sw	a5,-20(s0)
    tmpreg &= CTLR2_JEXTSEL_Reset;
     ade:	fec42703          	lw	a4,-20(s0)
     ae2:	77e5                	lui	a5,0xffff9
     ae4:	17fd                	addi	a5,a5,-1
     ae6:	8ff9                	and	a5,a5,a4
     ae8:	fef42623          	sw	a5,-20(s0)
    tmpreg |= ADC_ExternalTrigInjecConv;
     aec:	fec42703          	lw	a4,-20(s0)
     af0:	fd842783          	lw	a5,-40(s0)
     af4:	8fd9                	or	a5,a5,a4
     af6:	fef42623          	sw	a5,-20(s0)
    ADCx->CTLR2 = tmpreg;
     afa:	fdc42783          	lw	a5,-36(s0)
     afe:	fec42703          	lw	a4,-20(s0)
     b02:	c798                	sw	a4,8(a5)
}
     b04:	0001                	nop
     b06:	5432                	lw	s0,44(sp)
     b08:	6145                	addi	sp,sp,48
     b0a:	8082                	ret

00000b0c <ADC_ExternalTrigInjectedConvCmd>:
 *          NewState - ENABLE or DISABLE.
 *
 * @return  None
 */
void ADC_ExternalTrigInjectedConvCmd(ADC_TypeDef *ADCx, FunctionalState NewState)
{
     b0c:	1101                	addi	sp,sp,-32
     b0e:	ce22                	sw	s0,28(sp)
     b10:	1000                	addi	s0,sp,32
     b12:	fea42623          	sw	a0,-20(s0)
     b16:	feb42423          	sw	a1,-24(s0)
    if(NewState != DISABLE)
     b1a:	fe842783          	lw	a5,-24(s0)
     b1e:	cb91                	beqz	a5,b32 <ADC_ExternalTrigInjectedConvCmd+0x26>
    {
        ADCx->CTLR2 |= CTLR2_JEXTTRIG_Set;
     b20:	fec42783          	lw	a5,-20(s0)
     b24:	4798                	lw	a4,8(a5)
     b26:	67a1                	lui	a5,0x8
     b28:	8f5d                	or	a4,a4,a5
     b2a:	fec42783          	lw	a5,-20(s0)
     b2e:	c798                	sw	a4,8(a5)
    }
    else
    {
        ADCx->CTLR2 &= CTLR2_JEXTTRIG_Reset;
    }
}
     b30:	a811                	j	b44 <ADC_ExternalTrigInjectedConvCmd+0x38>
        ADCx->CTLR2 &= CTLR2_JEXTTRIG_Reset;
     b32:	fec42783          	lw	a5,-20(s0)
     b36:	4798                	lw	a4,8(a5)
     b38:	77e1                	lui	a5,0xffff8
     b3a:	17fd                	addi	a5,a5,-1
     b3c:	8f7d                	and	a4,a4,a5
     b3e:	fec42783          	lw	a5,-20(s0)
     b42:	c798                	sw	a4,8(a5)
}
     b44:	0001                	nop
     b46:	4472                	lw	s0,28(sp)
     b48:	6105                	addi	sp,sp,32
     b4a:	8082                	ret

00000b4c <ADC_SoftwareStartInjectedConvCmd>:
 *          NewState - ENABLE or DISABLE.
 *
 * @return  None
 */
void ADC_SoftwareStartInjectedConvCmd(ADC_TypeDef *ADCx, FunctionalState NewState)
{
     b4c:	1101                	addi	sp,sp,-32
     b4e:	ce22                	sw	s0,28(sp)
     b50:	1000                	addi	s0,sp,32
     b52:	fea42623          	sw	a0,-20(s0)
     b56:	feb42423          	sw	a1,-24(s0)
    if(NewState != DISABLE)
     b5a:	fe842783          	lw	a5,-24(s0)
     b5e:	cb99                	beqz	a5,b74 <ADC_SoftwareStartInjectedConvCmd+0x28>
    {
        ADCx->CTLR2 |= CTLR2_JEXTTRIG_JSWSTART_Set;
     b60:	fec42783          	lw	a5,-20(s0)
     b64:	4798                	lw	a4,8(a5)
     b66:	002087b7          	lui	a5,0x208
     b6a:	8f5d                	or	a4,a4,a5
     b6c:	fec42783          	lw	a5,-20(s0)
     b70:	c798                	sw	a4,8(a5)
    }
    else
    {
        ADCx->CTLR2 &= CTLR2_JEXTTRIG_JSWSTART_Reset;
    }
}
     b72:	a819                	j	b88 <ADC_SoftwareStartInjectedConvCmd+0x3c>
        ADCx->CTLR2 &= CTLR2_JEXTTRIG_JSWSTART_Reset;
     b74:	fec42783          	lw	a5,-20(s0)
     b78:	4798                	lw	a4,8(a5)
     b7a:	ffdf87b7          	lui	a5,0xffdf8
     b7e:	17fd                	addi	a5,a5,-1
     b80:	8f7d                	and	a4,a4,a5
     b82:	fec42783          	lw	a5,-20(s0)
     b86:	c798                	sw	a4,8(a5)
}
     b88:	0001                	nop
     b8a:	4472                	lw	s0,28(sp)
     b8c:	6105                	addi	sp,sp,32
     b8e:	8082                	ret

00000b90 <ADC_GetSoftwareStartInjectedConvCmdStatus>:
 * @param   ADCx - where x can be 1 to select the ADC peripheral.
 *
 * @return  FlagStatus: SET or RESET.
 */
FlagStatus ADC_GetSoftwareStartInjectedConvCmdStatus(ADC_TypeDef *ADCx)
{
     b90:	7179                	addi	sp,sp,-48
     b92:	d622                	sw	s0,44(sp)
     b94:	1800                	addi	s0,sp,48
     b96:	fca42e23          	sw	a0,-36(s0)
    FlagStatus bitstatus = RESET;
     b9a:	fe042623          	sw	zero,-20(s0)

    if((ADCx->CTLR2 & CTLR2_JSWSTART_Set) != (uint32_t)RESET)
     b9e:	fdc42783          	lw	a5,-36(s0)
     ba2:	4798                	lw	a4,8(a5)
     ba4:	002007b7          	lui	a5,0x200
     ba8:	8ff9                	and	a5,a5,a4
     baa:	c789                	beqz	a5,bb4 <ADC_GetSoftwareStartInjectedConvCmdStatus+0x24>
    {
        bitstatus = SET;
     bac:	4785                	li	a5,1
     bae:	fef42623          	sw	a5,-20(s0)
     bb2:	a019                	j	bb8 <ADC_GetSoftwareStartInjectedConvCmdStatus+0x28>
    }
    else
    {
        bitstatus = RESET;
     bb4:	fe042623          	sw	zero,-20(s0)
    }

    return bitstatus;
     bb8:	fec42783          	lw	a5,-20(s0)
}
     bbc:	853e                	mv	a0,a5
     bbe:	5432                	lw	s0,44(sp)
     bc0:	6145                	addi	sp,sp,48
     bc2:	8082                	ret

00000bc4 <ADC_InjectedChannelConfig>:
 *            ADC_SampleTime_11Cycles - Sample time equal to 11 cycles.
 *
 * @return  None
 */
void ADC_InjectedChannelConfig(ADC_TypeDef *ADCx, uint8_t ADC_Channel, uint8_t Rank, uint8_t ADC_SampleTime)
{
     bc4:	7179                	addi	sp,sp,-48
     bc6:	d622                	sw	s0,44(sp)
     bc8:	1800                	addi	s0,sp,48
     bca:	fca42e23          	sw	a0,-36(s0)
     bce:	87ae                	mv	a5,a1
     bd0:	8736                	mv	a4,a3
     bd2:	fcf40da3          	sb	a5,-37(s0)
     bd6:	87b2                	mv	a5,a2
     bd8:	fcf40d23          	sb	a5,-38(s0)
     bdc:	87ba                	mv	a5,a4
     bde:	fcf40ca3          	sb	a5,-39(s0)
    uint32_t tmpreg1 = 0, tmpreg2 = 0, tmpreg3 = 0;
     be2:	fe042623          	sw	zero,-20(s0)
     be6:	fe042423          	sw	zero,-24(s0)
     bea:	fe042223          	sw	zero,-28(s0)

    if(ADC_Channel > ADC_Channel_9)
     bee:	fdb44703          	lbu	a4,-37(s0)
     bf2:	47a5                	li	a5,9
     bf4:	06e7f663          	bgeu	a5,a4,c60 <ADC_InjectedChannelConfig+0x9c>
    {
        tmpreg1 = ADCx->SAMPTR1;
     bf8:	fdc42783          	lw	a5,-36(s0)
     bfc:	47dc                	lw	a5,12(a5)
     bfe:	fef42623          	sw	a5,-20(s0)
        tmpreg2 = SAMPTR1_SMP_Set << (3 * (ADC_Channel - 10));
     c02:	fdb44783          	lbu	a5,-37(s0)
     c06:	ff678713          	addi	a4,a5,-10 # 1ffff6 <_data_lma+0x1f0dea>
     c0a:	87ba                	mv	a5,a4
     c0c:	0786                	slli	a5,a5,0x1
     c0e:	97ba                	add	a5,a5,a4
     c10:	471d                	li	a4,7
     c12:	00f717b3          	sll	a5,a4,a5
     c16:	fef42423          	sw	a5,-24(s0)
        tmpreg1 &= ~tmpreg2;
     c1a:	fe842783          	lw	a5,-24(s0)
     c1e:	fff7c793          	not	a5,a5
     c22:	fec42703          	lw	a4,-20(s0)
     c26:	8ff9                	and	a5,a5,a4
     c28:	fef42623          	sw	a5,-20(s0)
        tmpreg2 = (uint32_t)ADC_SampleTime << (3 * (ADC_Channel - 10));
     c2c:	fd944683          	lbu	a3,-39(s0)
     c30:	fdb44783          	lbu	a5,-37(s0)
     c34:	ff678713          	addi	a4,a5,-10
     c38:	87ba                	mv	a5,a4
     c3a:	0786                	slli	a5,a5,0x1
     c3c:	97ba                	add	a5,a5,a4
     c3e:	00f697b3          	sll	a5,a3,a5
     c42:	fef42423          	sw	a5,-24(s0)
        tmpreg1 |= tmpreg2;
     c46:	fec42703          	lw	a4,-20(s0)
     c4a:	fe842783          	lw	a5,-24(s0)
     c4e:	8fd9                	or	a5,a5,a4
     c50:	fef42623          	sw	a5,-20(s0)
        ADCx->SAMPTR1 = tmpreg1;
     c54:	fdc42783          	lw	a5,-36(s0)
     c58:	fec42703          	lw	a4,-20(s0)
     c5c:	c7d8                	sw	a4,12(a5)
     c5e:	a085                	j	cbe <ADC_InjectedChannelConfig+0xfa>
    }
    else
    {
        tmpreg1 = ADCx->SAMPTR2;
     c60:	fdc42783          	lw	a5,-36(s0)
     c64:	4b9c                	lw	a5,16(a5)
     c66:	fef42623          	sw	a5,-20(s0)
        tmpreg2 = SAMPTR2_SMP_Set << (3 * ADC_Channel);
     c6a:	fdb44703          	lbu	a4,-37(s0)
     c6e:	87ba                	mv	a5,a4
     c70:	0786                	slli	a5,a5,0x1
     c72:	97ba                	add	a5,a5,a4
     c74:	471d                	li	a4,7
     c76:	00f717b3          	sll	a5,a4,a5
     c7a:	fef42423          	sw	a5,-24(s0)
        tmpreg1 &= ~tmpreg2;
     c7e:	fe842783          	lw	a5,-24(s0)
     c82:	fff7c793          	not	a5,a5
     c86:	fec42703          	lw	a4,-20(s0)
     c8a:	8ff9                	and	a5,a5,a4
     c8c:	fef42623          	sw	a5,-20(s0)
        tmpreg2 = (uint32_t)ADC_SampleTime << (3 * ADC_Channel);
     c90:	fd944683          	lbu	a3,-39(s0)
     c94:	fdb44703          	lbu	a4,-37(s0)
     c98:	87ba                	mv	a5,a4
     c9a:	0786                	slli	a5,a5,0x1
     c9c:	97ba                	add	a5,a5,a4
     c9e:	00f697b3          	sll	a5,a3,a5
     ca2:	fef42423          	sw	a5,-24(s0)
        tmpreg1 |= tmpreg2;
     ca6:	fec42703          	lw	a4,-20(s0)
     caa:	fe842783          	lw	a5,-24(s0)
     cae:	8fd9                	or	a5,a5,a4
     cb0:	fef42623          	sw	a5,-20(s0)
        ADCx->SAMPTR2 = tmpreg1;
     cb4:	fdc42783          	lw	a5,-36(s0)
     cb8:	fec42703          	lw	a4,-20(s0)
     cbc:	cb98                	sw	a4,16(a5)
    }

    tmpreg1 = ADCx->ISQR;
     cbe:	fdc42783          	lw	a5,-36(s0)
     cc2:	5f9c                	lw	a5,56(a5)
     cc4:	fef42623          	sw	a5,-20(s0)
    tmpreg3 = (tmpreg1 & ISQR_JL_Set) >> 20;
     cc8:	fec42783          	lw	a5,-20(s0)
     ccc:	83d1                	srli	a5,a5,0x14
     cce:	8b8d                	andi	a5,a5,3
     cd0:	fef42223          	sw	a5,-28(s0)
    tmpreg2 = ISQR_JSQ_Set << (5 * (uint8_t)((Rank + 3) - (tmpreg3 + 1)));
     cd4:	fe442783          	lw	a5,-28(s0)
     cd8:	0ff7f793          	andi	a5,a5,255
     cdc:	fda44703          	lbu	a4,-38(s0)
     ce0:	40f707b3          	sub	a5,a4,a5
     ce4:	0ff7f793          	andi	a5,a5,255
     ce8:	0789                	addi	a5,a5,2
     cea:	0ff7f793          	andi	a5,a5,255
     cee:	873e                	mv	a4,a5
     cf0:	87ba                	mv	a5,a4
     cf2:	078a                	slli	a5,a5,0x2
     cf4:	97ba                	add	a5,a5,a4
     cf6:	477d                	li	a4,31
     cf8:	00f717b3          	sll	a5,a4,a5
     cfc:	fef42423          	sw	a5,-24(s0)
    tmpreg1 &= ~tmpreg2;
     d00:	fe842783          	lw	a5,-24(s0)
     d04:	fff7c793          	not	a5,a5
     d08:	fec42703          	lw	a4,-20(s0)
     d0c:	8ff9                	and	a5,a5,a4
     d0e:	fef42623          	sw	a5,-20(s0)
    tmpreg2 = (uint32_t)ADC_Channel << (5 * (uint8_t)((Rank + 3) - (tmpreg3 + 1)));
     d12:	fdb44703          	lbu	a4,-37(s0)
     d16:	fe442783          	lw	a5,-28(s0)
     d1a:	0ff7f793          	andi	a5,a5,255
     d1e:	fda44683          	lbu	a3,-38(s0)
     d22:	40f687b3          	sub	a5,a3,a5
     d26:	0ff7f793          	andi	a5,a5,255
     d2a:	0789                	addi	a5,a5,2
     d2c:	0ff7f793          	andi	a5,a5,255
     d30:	86be                	mv	a3,a5
     d32:	87b6                	mv	a5,a3
     d34:	078a                	slli	a5,a5,0x2
     d36:	97b6                	add	a5,a5,a3
     d38:	00f717b3          	sll	a5,a4,a5
     d3c:	fef42423          	sw	a5,-24(s0)
    tmpreg1 |= tmpreg2;
     d40:	fec42703          	lw	a4,-20(s0)
     d44:	fe842783          	lw	a5,-24(s0)
     d48:	8fd9                	or	a5,a5,a4
     d4a:	fef42623          	sw	a5,-20(s0)
    ADCx->ISQR = tmpreg1;
     d4e:	fdc42783          	lw	a5,-36(s0)
     d52:	fec42703          	lw	a4,-20(s0)
     d56:	df98                	sw	a4,56(a5)
}
     d58:	0001                	nop
     d5a:	5432                	lw	s0,44(sp)
     d5c:	6145                	addi	sp,sp,48
     d5e:	8082                	ret

00000d60 <ADC_InjectedSequencerLengthConfig>:
 *            This parameter must be a number between 1 to 4.
 *
 * @return  None
 */
void ADC_InjectedSequencerLengthConfig(ADC_TypeDef *ADCx, uint8_t Length)
{
     d60:	7179                	addi	sp,sp,-48
     d62:	d622                	sw	s0,44(sp)
     d64:	1800                	addi	s0,sp,48
     d66:	fca42e23          	sw	a0,-36(s0)
     d6a:	87ae                	mv	a5,a1
     d6c:	fcf40da3          	sb	a5,-37(s0)
    uint32_t tmpreg1 = 0;
     d70:	fe042623          	sw	zero,-20(s0)
    uint32_t tmpreg2 = 0;
     d74:	fe042423          	sw	zero,-24(s0)

    tmpreg1 = ADCx->ISQR;
     d78:	fdc42783          	lw	a5,-36(s0)
     d7c:	5f9c                	lw	a5,56(a5)
     d7e:	fef42623          	sw	a5,-20(s0)
    tmpreg1 &= ISQR_JL_Reset;
     d82:	fec42703          	lw	a4,-20(s0)
     d86:	ffd007b7          	lui	a5,0xffd00
     d8a:	17fd                	addi	a5,a5,-1
     d8c:	8ff9                	and	a5,a5,a4
     d8e:	fef42623          	sw	a5,-20(s0)
    tmpreg2 = Length - 1;
     d92:	fdb44783          	lbu	a5,-37(s0)
     d96:	17fd                	addi	a5,a5,-1
     d98:	fef42423          	sw	a5,-24(s0)
    tmpreg1 |= tmpreg2 << 20;
     d9c:	fe842783          	lw	a5,-24(s0)
     da0:	07d2                	slli	a5,a5,0x14
     da2:	fec42703          	lw	a4,-20(s0)
     da6:	8fd9                	or	a5,a5,a4
     da8:	fef42623          	sw	a5,-20(s0)
    ADCx->ISQR = tmpreg1;
     dac:	fdc42783          	lw	a5,-36(s0)
     db0:	fec42703          	lw	a4,-20(s0)
     db4:	df98                	sw	a4,56(a5)
}
     db6:	0001                	nop
     db8:	5432                	lw	s0,44(sp)
     dba:	6145                	addi	sp,sp,48
     dbc:	8082                	ret

00000dbe <ADC_SetInjectedOffset>:
 *            This parameter must be a 12bit value.
 *
 * @return  None
 */
void ADC_SetInjectedOffset(ADC_TypeDef *ADCx, uint8_t ADC_InjectedChannel, uint16_t Offset)
{
     dbe:	7179                	addi	sp,sp,-48
     dc0:	d622                	sw	s0,44(sp)
     dc2:	1800                	addi	s0,sp,48
     dc4:	fca42e23          	sw	a0,-36(s0)
     dc8:	87ae                	mv	a5,a1
     dca:	8732                	mv	a4,a2
     dcc:	fcf40da3          	sb	a5,-37(s0)
     dd0:	87ba                	mv	a5,a4
     dd2:	fcf41c23          	sh	a5,-40(s0)
    __IO uint32_t tmp = 0;
     dd6:	fe042623          	sw	zero,-20(s0)

    tmp = (uint32_t)ADCx;
     dda:	fdc42783          	lw	a5,-36(s0)
     dde:	fef42623          	sw	a5,-20(s0)
    tmp += ADC_InjectedChannel;
     de2:	fdb44703          	lbu	a4,-37(s0)
     de6:	fec42783          	lw	a5,-20(s0)
     dea:	97ba                	add	a5,a5,a4
     dec:	fef42623          	sw	a5,-20(s0)

    *(__IO uint32_t *)tmp = (uint32_t)Offset;
     df0:	fec42783          	lw	a5,-20(s0)
     df4:	873e                	mv	a4,a5
     df6:	fd845783          	lhu	a5,-40(s0)
     dfa:	c31c                	sw	a5,0(a4)
}
     dfc:	0001                	nop
     dfe:	5432                	lw	s0,44(sp)
     e00:	6145                	addi	sp,sp,48
     e02:	8082                	ret

00000e04 <ADC_GetInjectedConversionValue>:
 *            ADC_InjectedChannel_4 - Injected Channel4 selected.
 *
 * @return  tmp - The Data conversion value.
 */
uint16_t ADC_GetInjectedConversionValue(ADC_TypeDef *ADCx, uint8_t ADC_InjectedChannel)
{
     e04:	7179                	addi	sp,sp,-48
     e06:	d622                	sw	s0,44(sp)
     e08:	1800                	addi	s0,sp,48
     e0a:	fca42e23          	sw	a0,-36(s0)
     e0e:	87ae                	mv	a5,a1
     e10:	fcf40da3          	sb	a5,-37(s0)
    __IO uint32_t tmp = 0;
     e14:	fe042623          	sw	zero,-20(s0)

    tmp = (uint32_t)ADCx;
     e18:	fdc42783          	lw	a5,-36(s0)
     e1c:	fef42623          	sw	a5,-20(s0)
    tmp += ADC_InjectedChannel + IDATAR_Offset;
     e20:	fdb44703          	lbu	a4,-37(s0)
     e24:	fec42783          	lw	a5,-20(s0)
     e28:	97ba                	add	a5,a5,a4
     e2a:	02878793          	addi	a5,a5,40 # ffd00028 <_eusrstack+0xdfcfc028>
     e2e:	fef42623          	sw	a5,-20(s0)

    return (uint16_t)(*(__IO uint32_t *)tmp);
     e32:	fec42783          	lw	a5,-20(s0)
     e36:	439c                	lw	a5,0(a5)
     e38:	07c2                	slli	a5,a5,0x10
     e3a:	83c1                	srli	a5,a5,0x10
}
     e3c:	853e                	mv	a0,a5
     e3e:	5432                	lw	s0,44(sp)
     e40:	6145                	addi	sp,sp,48
     e42:	8082                	ret

00000e44 <ADC_AnalogWatchdogCmd>:
 *        watchdog.
 *
 * @return  none
 */
void ADC_AnalogWatchdogCmd(ADC_TypeDef *ADCx, uint32_t ADC_AnalogWatchdog)
{
     e44:	7179                	addi	sp,sp,-48
     e46:	d622                	sw	s0,44(sp)
     e48:	1800                	addi	s0,sp,48
     e4a:	fca42e23          	sw	a0,-36(s0)
     e4e:	fcb42c23          	sw	a1,-40(s0)
    uint32_t tmpreg = 0;
     e52:	fe042623          	sw	zero,-20(s0)

    tmpreg = ADCx->CTLR1;
     e56:	fdc42783          	lw	a5,-36(s0)
     e5a:	43dc                	lw	a5,4(a5)
     e5c:	fef42623          	sw	a5,-20(s0)
    tmpreg &= CTLR1_AWDMode_Reset;
     e60:	fec42703          	lw	a4,-20(s0)
     e64:	ff4007b7          	lui	a5,0xff400
     e68:	dff78793          	addi	a5,a5,-513 # ff3ffdff <_eusrstack+0xdf3fbdff>
     e6c:	8ff9                	and	a5,a5,a4
     e6e:	fef42623          	sw	a5,-20(s0)
    tmpreg |= ADC_AnalogWatchdog;
     e72:	fec42703          	lw	a4,-20(s0)
     e76:	fd842783          	lw	a5,-40(s0)
     e7a:	8fd9                	or	a5,a5,a4
     e7c:	fef42623          	sw	a5,-20(s0)
    ADCx->CTLR1 = tmpreg;
     e80:	fdc42783          	lw	a5,-36(s0)
     e84:	fec42703          	lw	a4,-20(s0)
     e88:	c3d8                	sw	a4,4(a5)
}
     e8a:	0001                	nop
     e8c:	5432                	lw	s0,44(sp)
     e8e:	6145                	addi	sp,sp,48
     e90:	8082                	ret

00000e92 <ADC_AnalogWatchdogThresholdsConfig>:
 *
 * @return  none
 */
void ADC_AnalogWatchdogThresholdsConfig(ADC_TypeDef *ADCx, uint16_t HighThreshold,
                                        uint16_t LowThreshold)
{
     e92:	1101                	addi	sp,sp,-32
     e94:	ce22                	sw	s0,28(sp)
     e96:	1000                	addi	s0,sp,32
     e98:	fea42623          	sw	a0,-20(s0)
     e9c:	87ae                	mv	a5,a1
     e9e:	8732                	mv	a4,a2
     ea0:	fef41523          	sh	a5,-22(s0)
     ea4:	87ba                	mv	a5,a4
     ea6:	fef41423          	sh	a5,-24(s0)
    ADCx->WDHTR = HighThreshold;
     eaa:	fea45703          	lhu	a4,-22(s0)
     eae:	fec42783          	lw	a5,-20(s0)
     eb2:	d3d8                	sw	a4,36(a5)
    ADCx->WDLTR = LowThreshold;
     eb4:	fe845703          	lhu	a4,-24(s0)
     eb8:	fec42783          	lw	a5,-20(s0)
     ebc:	d798                	sw	a4,40(a5)
}
     ebe:	0001                	nop
     ec0:	4472                	lw	s0,28(sp)
     ec2:	6105                	addi	sp,sp,32
     ec4:	8082                	ret

00000ec6 <ADC_AnalogWatchdog1ThresholdsConfig>:
 *
 * @return  none
 */
void ADC_AnalogWatchdog1ThresholdsConfig(ADC_TypeDef *ADCx, uint16_t HighThreshold,
                                        uint16_t LowThreshold)
{
     ec6:	1101                	addi	sp,sp,-32
     ec8:	ce22                	sw	s0,28(sp)
     eca:	1000                	addi	s0,sp,32
     ecc:	fea42623          	sw	a0,-20(s0)
     ed0:	87ae                	mv	a5,a1
     ed2:	8732                	mv	a4,a2
     ed4:	fef41523          	sh	a5,-22(s0)
     ed8:	87ba                	mv	a5,a4
     eda:	fef41423          	sh	a5,-24(s0)
    ADCx->WDTR1 = (uint32_t)HighThreshold<<16;
     ede:	fea45783          	lhu	a5,-22(s0)
     ee2:	01079713          	slli	a4,a5,0x10
     ee6:	fec42783          	lw	a5,-20(s0)
     eea:	cbf8                	sw	a4,84(a5)
    ADCx->WDTR1 |= (uint32_t)LowThreshold;
     eec:	fec42783          	lw	a5,-20(s0)
     ef0:	4bf8                	lw	a4,84(a5)
     ef2:	fe845783          	lhu	a5,-24(s0)
     ef6:	8f5d                	or	a4,a4,a5
     ef8:	fec42783          	lw	a5,-20(s0)
     efc:	cbf8                	sw	a4,84(a5)
}
     efe:	0001                	nop
     f00:	4472                	lw	s0,28(sp)
     f02:	6105                	addi	sp,sp,32
     f04:	8082                	ret

00000f06 <ADC_AnalogWatchdog2ThresholdsConfig>:
 *
 * @return  none
 */
void ADC_AnalogWatchdog2ThresholdsConfig(ADC_TypeDef *ADCx, uint16_t HighThreshold,
                                        uint16_t LowThreshold)
{
     f06:	1101                	addi	sp,sp,-32
     f08:	ce22                	sw	s0,28(sp)
     f0a:	1000                	addi	s0,sp,32
     f0c:	fea42623          	sw	a0,-20(s0)
     f10:	87ae                	mv	a5,a1
     f12:	8732                	mv	a4,a2
     f14:	fef41523          	sh	a5,-22(s0)
     f18:	87ba                	mv	a5,a4
     f1a:	fef41423          	sh	a5,-24(s0)
    ADCx->WDTR2 = (uint32_t)HighThreshold<<16;
     f1e:	fea45783          	lhu	a5,-22(s0)
     f22:	01079713          	slli	a4,a5,0x10
     f26:	fec42783          	lw	a5,-20(s0)
     f2a:	cfb8                	sw	a4,88(a5)
    ADCx->WDTR2 |= (uint32_t)LowThreshold;
     f2c:	fec42783          	lw	a5,-20(s0)
     f30:	4fb8                	lw	a4,88(a5)
     f32:	fe845783          	lhu	a5,-24(s0)
     f36:	8f5d                	or	a4,a4,a5
     f38:	fec42783          	lw	a5,-20(s0)
     f3c:	cfb8                	sw	a4,88(a5)
}
     f3e:	0001                	nop
     f40:	4472                	lw	s0,28(sp)
     f42:	6105                	addi	sp,sp,32
     f44:	8082                	ret

00000f46 <ADC_AnalogWatchdog3ThresholdsConfig>:
 *
 * @return  none
 */
void ADC_AnalogWatchdog3ThresholdsConfig(ADC_TypeDef *ADCx, uint16_t HighThreshold,
                                        uint16_t LowThreshold)
{
     f46:	1101                	addi	sp,sp,-32
     f48:	ce22                	sw	s0,28(sp)
     f4a:	1000                	addi	s0,sp,32
     f4c:	fea42623          	sw	a0,-20(s0)
     f50:	87ae                	mv	a5,a1
     f52:	8732                	mv	a4,a2
     f54:	fef41523          	sh	a5,-22(s0)
     f58:	87ba                	mv	a5,a4
     f5a:	fef41423          	sh	a5,-24(s0)
    ADCx->WDTR3 = (uint32_t)HighThreshold<<16;
     f5e:	fea45783          	lhu	a5,-22(s0)
     f62:	01079713          	slli	a4,a5,0x10
     f66:	fec42783          	lw	a5,-20(s0)
     f6a:	cff8                	sw	a4,92(a5)
    ADCx->WDTR3 |= (uint32_t)LowThreshold;
     f6c:	fec42783          	lw	a5,-20(s0)
     f70:	4ff8                	lw	a4,92(a5)
     f72:	fe845783          	lhu	a5,-24(s0)
     f76:	8f5d                	or	a4,a4,a5
     f78:	fec42783          	lw	a5,-20(s0)
     f7c:	cff8                	sw	a4,92(a5)
}
     f7e:	0001                	nop
     f80:	4472                	lw	s0,28(sp)
     f82:	6105                	addi	sp,sp,32
     f84:	8082                	ret

00000f86 <ADC_AnalogWatchdogSingleChannelConfig>:
 *            ADC_Channel_15 - ADC Channel15 selected.
 *
 * @return  None
 */
void ADC_AnalogWatchdogSingleChannelConfig(ADC_TypeDef *ADCx, uint8_t ADC_Channel)
{
     f86:	7179                	addi	sp,sp,-48
     f88:	d622                	sw	s0,44(sp)
     f8a:	1800                	addi	s0,sp,48
     f8c:	fca42e23          	sw	a0,-36(s0)
     f90:	87ae                	mv	a5,a1
     f92:	fcf40da3          	sb	a5,-37(s0)
    uint32_t tmpreg = 0;
     f96:	fe042623          	sw	zero,-20(s0)

    tmpreg = ADCx->CTLR1;
     f9a:	fdc42783          	lw	a5,-36(s0)
     f9e:	43dc                	lw	a5,4(a5)
     fa0:	fef42623          	sw	a5,-20(s0)
    tmpreg &= CTLR1_AWDCH_Reset;
     fa4:	fec42783          	lw	a5,-20(s0)
     fa8:	9b81                	andi	a5,a5,-32
     faa:	fef42623          	sw	a5,-20(s0)
    tmpreg |= ADC_Channel;
     fae:	fdb44783          	lbu	a5,-37(s0)
     fb2:	fec42703          	lw	a4,-20(s0)
     fb6:	8fd9                	or	a5,a5,a4
     fb8:	fef42623          	sw	a5,-20(s0)
    ADCx->CTLR1 = tmpreg;
     fbc:	fdc42783          	lw	a5,-36(s0)
     fc0:	fec42703          	lw	a4,-20(s0)
     fc4:	c3d8                	sw	a4,4(a5)
}
     fc6:	0001                	nop
     fc8:	5432                	lw	s0,44(sp)
     fca:	6145                	addi	sp,sp,48
     fcc:	8082                	ret

00000fce <ADC_GetFlagStatus>:
 *            ADC_FLAG_STRT - Start of regular group conversion flag.
 *
 * @return  FlagStatus: SET or RESET.
 */
FlagStatus ADC_GetFlagStatus(ADC_TypeDef *ADCx, uint8_t ADC_FLAG)
{
     fce:	7179                	addi	sp,sp,-48
     fd0:	d622                	sw	s0,44(sp)
     fd2:	1800                	addi	s0,sp,48
     fd4:	fca42e23          	sw	a0,-36(s0)
     fd8:	87ae                	mv	a5,a1
     fda:	fcf40da3          	sb	a5,-37(s0)
    FlagStatus bitstatus = RESET;
     fde:	fe042623          	sw	zero,-20(s0)

    if((ADCx->STATR & ADC_FLAG) != (uint8_t)RESET)
     fe2:	fdc42783          	lw	a5,-36(s0)
     fe6:	4398                	lw	a4,0(a5)
     fe8:	fdb44783          	lbu	a5,-37(s0)
     fec:	8ff9                	and	a5,a5,a4
     fee:	c789                	beqz	a5,ff8 <ADC_GetFlagStatus+0x2a>
    {
        bitstatus = SET;
     ff0:	4785                	li	a5,1
     ff2:	fef42623          	sw	a5,-20(s0)
     ff6:	a019                	j	ffc <ADC_GetFlagStatus+0x2e>
    }
    else
    {
        bitstatus = RESET;
     ff8:	fe042623          	sw	zero,-20(s0)
    }

    return bitstatus;
     ffc:	fec42783          	lw	a5,-20(s0)
}
    1000:	853e                	mv	a0,a5
    1002:	5432                	lw	s0,44(sp)
    1004:	6145                	addi	sp,sp,48
    1006:	8082                	ret

00001008 <ADC_ClearFlag>:
 *            ADC_FLAG_STRT - Start of regular group conversion flag.
 *
 * @return  none
 */
void ADC_ClearFlag(ADC_TypeDef *ADCx, uint8_t ADC_FLAG)
{
    1008:	1101                	addi	sp,sp,-32
    100a:	ce22                	sw	s0,28(sp)
    100c:	1000                	addi	s0,sp,32
    100e:	fea42623          	sw	a0,-20(s0)
    1012:	87ae                	mv	a5,a1
    1014:	fef405a3          	sb	a5,-21(s0)
    ADCx->STATR = ~(uint32_t)ADC_FLAG;
    1018:	feb44783          	lbu	a5,-21(s0)
    101c:	fff7c713          	not	a4,a5
    1020:	fec42783          	lw	a5,-20(s0)
    1024:	c398                	sw	a4,0(a5)
}
    1026:	0001                	nop
    1028:	4472                	lw	s0,28(sp)
    102a:	6105                	addi	sp,sp,32
    102c:	8082                	ret

0000102e <ADC_GetITStatus>:
 *            ADC_IT_JEOC - End of injected conversion interrupt mask.
 *
 * @return  FlagStatus: SET or RESET.
 */
ITStatus ADC_GetITStatus(ADC_TypeDef *ADCx, uint16_t ADC_IT)
{
    102e:	7179                	addi	sp,sp,-48
    1030:	d622                	sw	s0,44(sp)
    1032:	1800                	addi	s0,sp,48
    1034:	fca42e23          	sw	a0,-36(s0)
    1038:	87ae                	mv	a5,a1
    103a:	fcf41d23          	sh	a5,-38(s0)
    ITStatus bitstatus = RESET;
    103e:	fe042623          	sw	zero,-20(s0)
    uint32_t itmask = 0, enablestatus = 0;
    1042:	fe042423          	sw	zero,-24(s0)
    1046:	fe042223          	sw	zero,-28(s0)

    itmask = ADC_IT >> 8;
    104a:	fda45783          	lhu	a5,-38(s0)
    104e:	83a1                	srli	a5,a5,0x8
    1050:	07c2                	slli	a5,a5,0x10
    1052:	83c1                	srli	a5,a5,0x10
    1054:	fef42423          	sw	a5,-24(s0)
    enablestatus = (ADCx->CTLR1 & (uint8_t)ADC_IT);
    1058:	fdc42783          	lw	a5,-36(s0)
    105c:	43dc                	lw	a5,4(a5)
    105e:	fda45703          	lhu	a4,-38(s0)
    1062:	0ff77713          	andi	a4,a4,255
    1066:	8ff9                	and	a5,a5,a4
    1068:	fef42223          	sw	a5,-28(s0)

    if(((ADCx->STATR & itmask) != (uint32_t)RESET) && enablestatus)
    106c:	fdc42783          	lw	a5,-36(s0)
    1070:	4398                	lw	a4,0(a5)
    1072:	fe842783          	lw	a5,-24(s0)
    1076:	8ff9                	and	a5,a5,a4
    1078:	cb81                	beqz	a5,1088 <ADC_GetITStatus+0x5a>
    107a:	fe442783          	lw	a5,-28(s0)
    107e:	c789                	beqz	a5,1088 <ADC_GetITStatus+0x5a>
    {
        bitstatus = SET;
    1080:	4785                	li	a5,1
    1082:	fef42623          	sw	a5,-20(s0)
    1086:	a019                	j	108c <ADC_GetITStatus+0x5e>
    }
    else
    {
        bitstatus = RESET;
    1088:	fe042623          	sw	zero,-20(s0)
    }

    return bitstatus;
    108c:	fec42783          	lw	a5,-20(s0)
}
    1090:	853e                	mv	a0,a5
    1092:	5432                	lw	s0,44(sp)
    1094:	6145                	addi	sp,sp,48
    1096:	8082                	ret

00001098 <ADC_ClearITPendingBit>:
 *            ADC_IT_JEOC - End of injected conversion interrupt mask.
 *
 * @return  none
 */
void ADC_ClearITPendingBit(ADC_TypeDef *ADCx, uint16_t ADC_IT)
{
    1098:	7179                	addi	sp,sp,-48
    109a:	d622                	sw	s0,44(sp)
    109c:	1800                	addi	s0,sp,48
    109e:	fca42e23          	sw	a0,-36(s0)
    10a2:	87ae                	mv	a5,a1
    10a4:	fcf41d23          	sh	a5,-38(s0)
    uint8_t itmask = 0;
    10a8:	fe0407a3          	sb	zero,-17(s0)

    itmask = (uint8_t)(ADC_IT >> 8);
    10ac:	fda45783          	lhu	a5,-38(s0)
    10b0:	83a1                	srli	a5,a5,0x8
    10b2:	07c2                	slli	a5,a5,0x10
    10b4:	83c1                	srli	a5,a5,0x10
    10b6:	fef407a3          	sb	a5,-17(s0)
    ADCx->STATR = ~(uint32_t)itmask;
    10ba:	fef44783          	lbu	a5,-17(s0)
    10be:	fff7c713          	not	a4,a5
    10c2:	fdc42783          	lw	a5,-36(s0)
    10c6:	c398                	sw	a4,0(a5)
}
    10c8:	0001                	nop
    10ca:	5432                	lw	s0,44(sp)
    10cc:	6145                	addi	sp,sp,48
    10ce:	8082                	ret

000010d0 <ADC_AnalogWatchdogResetCmd>:
 *          NewState - ENABLE or DISABLE.
 *
 * @return  none
 */
void ADC_AnalogWatchdogResetCmd(ADC_TypeDef *ADCx, uint32_t ADC_AnalogWatchdog_x, FunctionalState NewState)
{
    10d0:	1101                	addi	sp,sp,-32
    10d2:	ce22                	sw	s0,28(sp)
    10d4:	1000                	addi	s0,sp,32
    10d6:	fea42623          	sw	a0,-20(s0)
    10da:	feb42423          	sw	a1,-24(s0)
    10de:	fec42223          	sw	a2,-28(s0)
  if (NewState != DISABLE)
    10e2:	fe442783          	lw	a5,-28(s0)
    10e6:	cb99                	beqz	a5,10fc <ADC_AnalogWatchdogResetCmd+0x2c>
  {
      ADCx->CTLR3 |= ADC_AnalogWatchdog_x;
    10e8:	fec42783          	lw	a5,-20(s0)
    10ec:	4bb8                	lw	a4,80(a5)
    10ee:	fe842783          	lw	a5,-24(s0)
    10f2:	8f5d                	or	a4,a4,a5
    10f4:	fec42783          	lw	a5,-20(s0)
    10f8:	cbb8                	sw	a4,80(a5)
  }
  else
  {
      ADCx->CTLR3 &= ~ADC_AnalogWatchdog_x;
  }
}
    10fa:	a821                	j	1112 <ADC_AnalogWatchdogResetCmd+0x42>
      ADCx->CTLR3 &= ~ADC_AnalogWatchdog_x;
    10fc:	fec42783          	lw	a5,-20(s0)
    1100:	4bb8                	lw	a4,80(a5)
    1102:	fe842783          	lw	a5,-24(s0)
    1106:	fff7c793          	not	a5,a5
    110a:	8f7d                	and	a4,a4,a5
    110c:	fec42783          	lw	a5,-20(s0)
    1110:	cbb8                	sw	a4,80(a5)
}
    1112:	0001                	nop
    1114:	4472                	lw	s0,28(sp)
    1116:	6105                	addi	sp,sp,32
    1118:	8082                	ret

0000111a <ADC_AnalogWatchdogScanCmd>:
 *          NewState - ENABLE or DISABLE.
 *
 * @return  none
 */
void ADC_AnalogWatchdogScanCmd(ADC_TypeDef *ADCx, FunctionalState NewState)
{
    111a:	1101                	addi	sp,sp,-32
    111c:	ce22                	sw	s0,28(sp)
    111e:	1000                	addi	s0,sp,32
    1120:	fea42623          	sw	a0,-20(s0)
    1124:	feb42423          	sw	a1,-24(s0)
    if (NewState != DISABLE)
    1128:	fe842783          	lw	a5,-24(s0)
    112c:	cb91                	beqz	a5,1140 <ADC_AnalogWatchdogScanCmd+0x26>
    {
      ADCx->CTLR3 |= (1<<9);
    112e:	fec42783          	lw	a5,-20(s0)
    1132:	4bbc                	lw	a5,80(a5)
    1134:	2007e713          	ori	a4,a5,512
    1138:	fec42783          	lw	a5,-20(s0)
    113c:	cbb8                	sw	a4,80(a5)
    }
    else
    {
      ADCx->CTLR3 &= ~(1<<9);
    }
}
    113e:	a809                	j	1150 <ADC_AnalogWatchdogScanCmd+0x36>
      ADCx->CTLR3 &= ~(1<<9);
    1140:	fec42783          	lw	a5,-20(s0)
    1144:	4bbc                	lw	a5,80(a5)
    1146:	dff7f713          	andi	a4,a5,-513
    114a:	fec42783          	lw	a5,-20(s0)
    114e:	cbb8                	sw	a4,80(a5)
}
    1150:	0001                	nop
    1152:	4472                	lw	s0,28(sp)
    1154:	6105                	addi	sp,sp,32
    1156:	8082                	ret

00001158 <ADC_CLKConfig>:
 *            ADC_CLK_Div15 - ADC clock = SYSCLK/15
 *            ADC_CLK_Div16 - ADC clock = SYSCLK/16
 * @return  none
 */
void ADC_CLKConfig(ADC_TypeDef *ADCx, uint32_t ADC_CLK_Div_x)
{
    1158:	7179                	addi	sp,sp,-48
    115a:	d622                	sw	s0,44(sp)
    115c:	1800                	addi	s0,sp,48
    115e:	fca42e23          	sw	a0,-36(s0)
    1162:	fcb42c23          	sw	a1,-40(s0)
  uint32_t tmpreg = 0;
    1166:	fe042623          	sw	zero,-20(s0)

  tmpreg = ADCx->CTLR3;
    116a:	fdc42783          	lw	a5,-36(s0)
    116e:	4bbc                	lw	a5,80(a5)
    1170:	fef42623          	sw	a5,-20(s0)

  tmpreg &= CTLR3_CLK_Mask;
    1174:	fec42783          	lw	a5,-20(s0)
    1178:	e007f793          	andi	a5,a5,-512
    117c:	fef42623          	sw	a5,-20(s0)
  tmpreg |= ADC_CLK_Div_x;
    1180:	fec42703          	lw	a4,-20(s0)
    1184:	fd842783          	lw	a5,-40(s0)
    1188:	8fd9                	or	a5,a5,a4
    118a:	fef42623          	sw	a5,-20(s0)
  ADCx->CTLR3 = tmpreg;
    118e:	fdc42783          	lw	a5,-36(s0)
    1192:	fec42703          	lw	a4,-20(s0)
    1196:	cbb8                	sw	a4,80(a5)
}
    1198:	0001                	nop
    119a:	5432                	lw	s0,44(sp)
    119c:	6145                	addi	sp,sp,48
    119e:	8082                	ret

000011a0 <AutoWakeUpCmd>:
 *        (ENABLE or DISABLE).
 *
 * @return  none
 */
void AutoWakeUpCmd(FunctionalState NewState)
{
    11a0:	1101                	addi	sp,sp,-32
    11a2:	ce22                	sw	s0,28(sp)
    11a4:	1000                	addi	s0,sp,32
    11a6:	fea42623          	sw	a0,-20(s0)
    if(NewState)
    11aa:	fec42783          	lw	a5,-20(s0)
    11ae:	cf91                	beqz	a5,11ca <AutoWakeUpCmd+0x2a>
    {
        AWU->CSR |= (1 << 1);
    11b0:	400267b7          	lui	a5,0x40026
    11b4:	40078793          	addi	a5,a5,1024 # 40026400 <_eusrstack+0x20022400>
    11b8:	4398                	lw	a4,0(a5)
    11ba:	400267b7          	lui	a5,0x40026
    11be:	40078793          	addi	a5,a5,1024 # 40026400 <_eusrstack+0x20022400>
    11c2:	00276713          	ori	a4,a4,2
    11c6:	c398                	sw	a4,0(a5)
    }
    else
    {
        AWU->CSR &= ~(1 << 1);
    }
}
    11c8:	a821                	j	11e0 <AutoWakeUpCmd+0x40>
        AWU->CSR &= ~(1 << 1);
    11ca:	400267b7          	lui	a5,0x40026
    11ce:	40078793          	addi	a5,a5,1024 # 40026400 <_eusrstack+0x20022400>
    11d2:	4398                	lw	a4,0(a5)
    11d4:	400267b7          	lui	a5,0x40026
    11d8:	40078793          	addi	a5,a5,1024 # 40026400 <_eusrstack+0x20022400>
    11dc:	9b75                	andi	a4,a4,-3
    11de:	c398                	sw	a4,0(a5)
}
    11e0:	0001                	nop
    11e2:	4472                	lw	s0,28(sp)
    11e4:	6105                	addi	sp,sp,32
    11e6:	8082                	ret

000011e8 <AWU_SetPrescaler>:
 *            AWU_Prescaler_61440 - AWU counter clock = LSI/61440
 *
 * @return  none
 */
void AWU_SetPrescaler(uint32_t AWU_Prescaler)
{
    11e8:	7179                	addi	sp,sp,-48
    11ea:	d622                	sw	s0,44(sp)
    11ec:	1800                	addi	s0,sp,48
    11ee:	fca42e23          	sw	a0,-36(s0)
    uint32_t tmpreg = 0;
    11f2:	fe042623          	sw	zero,-20(s0)
    tmpreg = AWU->PSC & AWUPSC_MASK;
    11f6:	400267b7          	lui	a5,0x40026
    11fa:	40078793          	addi	a5,a5,1024 # 40026400 <_eusrstack+0x20022400>
    11fe:	479c                	lw	a5,8(a5)
    1200:	9bc1                	andi	a5,a5,-16
    1202:	fef42623          	sw	a5,-20(s0)
    tmpreg |= AWU_Prescaler;
    1206:	fec42703          	lw	a4,-20(s0)
    120a:	fdc42783          	lw	a5,-36(s0)
    120e:	8fd9                	or	a5,a5,a4
    1210:	fef42623          	sw	a5,-20(s0)
    AWU->PSC = tmpreg;
    1214:	400267b7          	lui	a5,0x40026
    1218:	40078793          	addi	a5,a5,1024 # 40026400 <_eusrstack+0x20022400>
    121c:	fec42703          	lw	a4,-20(s0)
    1220:	c798                	sw	a4,8(a5)
}
    1222:	0001                	nop
    1224:	5432                	lw	s0,44(sp)
    1226:	6145                	addi	sp,sp,48
    1228:	8082                	ret

0000122a <AWU_SetWindowValue>:
 *        downcounter,which must be lower than 0x3F
 *
 * @return  none
 */
void AWU_SetWindowValue(uint8_t WindowValue)
{
    122a:	7179                	addi	sp,sp,-48
    122c:	d622                	sw	s0,44(sp)
    122e:	1800                	addi	s0,sp,48
    1230:	87aa                	mv	a5,a0
    1232:	fcf40fa3          	sb	a5,-33(s0)
    __IO uint32_t tmpreg = 0;
    1236:	fe042623          	sw	zero,-20(s0)

    tmpreg = AWU->WR & AWUWR_MASK;
    123a:	400267b7          	lui	a5,0x40026
    123e:	40078793          	addi	a5,a5,1024 # 40026400 <_eusrstack+0x20022400>
    1242:	43dc                	lw	a5,4(a5)
    1244:	fc07f793          	andi	a5,a5,-64
    1248:	fef42623          	sw	a5,-20(s0)
    tmpreg |= WindowValue;
    124c:	fdf44703          	lbu	a4,-33(s0)
    1250:	fec42783          	lw	a5,-20(s0)
    1254:	8fd9                	or	a5,a5,a4
    1256:	fef42623          	sw	a5,-20(s0)

    AWU->WR = tmpreg;
    125a:	400267b7          	lui	a5,0x40026
    125e:	40078793          	addi	a5,a5,1024 # 40026400 <_eusrstack+0x20022400>
    1262:	fec42703          	lw	a4,-20(s0)
    1266:	c3d8                	sw	a4,4(a5)
}
    1268:	0001                	nop
    126a:	5432                	lw	s0,44(sp)
    126c:	6145                	addi	sp,sp,48
    126e:	8082                	ret

00001270 <DBGMCU_GetREVID>:
 * @brief   Returns the device revision identifier.
 *
 * @return  Revision identifier.
 */
uint32_t DBGMCU_GetREVID(void)
{
    1270:	1141                	addi	sp,sp,-16
    1272:	c622                	sw	s0,12(sp)
    1274:	0800                	addi	s0,sp,16
	return ((*(uint32_t *)0x1FFFF704) >> 16);
    1276:	1ffff7b7          	lui	a5,0x1ffff
    127a:	70478793          	addi	a5,a5,1796 # 1ffff704 <_data_lma+0x1fff04f8>
    127e:	439c                	lw	a5,0(a5)
    1280:	83c1                	srli	a5,a5,0x10
}
    1282:	853e                	mv	a0,a5
    1284:	4432                	lw	s0,12(sp)
    1286:	0141                	addi	sp,sp,16
    1288:	8082                	ret

0000128a <DBGMCU_GetDEVID>:
 * @brief   Returns the device identifier.
 *
 * @return  Device identifier.
 */
uint32_t DBGMCU_GetDEVID(void)
{
    128a:	1141                	addi	sp,sp,-16
    128c:	c622                	sw	s0,12(sp)
    128e:	0800                	addi	s0,sp,16
	return ((*(uint32_t *)0x1FFFF704) & IDCODE_DEVID_MASK);
    1290:	1ffff7b7          	lui	a5,0x1ffff
    1294:	70478793          	addi	a5,a5,1796 # 1ffff704 <_data_lma+0x1fff04f8>
    1298:	4398                	lw	a4,0(a5)
    129a:	67c1                	lui	a5,0x10
    129c:	17fd                	addi	a5,a5,-1
    129e:	8ff9                	and	a5,a5,a4
}
    12a0:	853e                	mv	a0,a5
    12a2:	4432                	lw	s0,12(sp)
    12a4:	0141                	addi	sp,sp,16
    12a6:	8082                	ret

000012a8 <__get_DEBUG_CR>:
 * @brief   Return the DEBUGE Control Register
 *
 * @return  DEBUGE Control value
 */
uint32_t __get_DEBUG_CR(void)
{
    12a8:	1101                	addi	sp,sp,-32
    12aa:	ce22                	sw	s0,28(sp)
    12ac:	1000                	addi	s0,sp,32
	uint32_t result;

	__asm volatile("csrr %0,""0x7C0" : "=r"(result));
    12ae:	7c0027f3          	csrr	a5,0x7c0
    12b2:	fef42623          	sw	a5,-20(s0)
	return (result);
    12b6:	fec42783          	lw	a5,-20(s0)
}
    12ba:	853e                	mv	a0,a5
    12bc:	4472                	lw	s0,28(sp)
    12be:	6105                	addi	sp,sp,32
    12c0:	8082                	ret

000012c2 <__set_DEBUG_CR>:
 * @param   value  - set DEBUGE Control value
 *
 * @return  none
 */
void __set_DEBUG_CR(uint32_t value)
{
    12c2:	1101                	addi	sp,sp,-32
    12c4:	ce22                	sw	s0,28(sp)
    12c6:	1000                	addi	s0,sp,32
    12c8:	fea42623          	sw	a0,-20(s0)
	__asm volatile("csrw 0x7C0, %0" : : "r"(value));
    12cc:	fec42783          	lw	a5,-20(s0)
    12d0:	7c079073          	csrw	0x7c0,a5
}
    12d4:	0001                	nop
    12d6:	4472                	lw	s0,28(sp)
    12d8:	6105                	addi	sp,sp,32
    12da:	8082                	ret

000012dc <DBGMCU_Config>:
 *          NewState - ENABLE or DISABLE.
 *
 * @return  none
 */
void DBGMCU_Config(uint32_t DBGMCU_Periph, FunctionalState NewState)
{
    12dc:	7179                	addi	sp,sp,-48
    12de:	d606                	sw	ra,44(sp)
    12e0:	d422                	sw	s0,40(sp)
    12e2:	1800                	addi	s0,sp,48
    12e4:	fca42e23          	sw	a0,-36(s0)
    12e8:	fcb42c23          	sw	a1,-40(s0)
	uint32_t val;

	if(NewState != DISABLE)
    12ec:	fd842783          	lw	a5,-40(s0)
    12f0:	c789                	beqz	a5,12fa <DBGMCU_Config+0x1e>
	{
		__set_DEBUG_CR(DBGMCU_Periph);
    12f2:	fdc42503          	lw	a0,-36(s0)
    12f6:	37f1                	jal	12c2 <__set_DEBUG_CR>
		val = __get_DEBUG_CR();
		val &= ~(uint32_t)DBGMCU_Periph;
		__set_DEBUG_CR(val);
	}

}
    12f8:	a005                	j	1318 <DBGMCU_Config+0x3c>
		val = __get_DEBUG_CR();
    12fa:	377d                	jal	12a8 <__get_DEBUG_CR>
    12fc:	fea42623          	sw	a0,-20(s0)
		val &= ~(uint32_t)DBGMCU_Periph;
    1300:	fdc42783          	lw	a5,-36(s0)
    1304:	fff7c793          	not	a5,a5
    1308:	fec42703          	lw	a4,-20(s0)
    130c:	8ff9                	and	a5,a5,a4
    130e:	fef42623          	sw	a5,-20(s0)
		__set_DEBUG_CR(val);
    1312:	fec42503          	lw	a0,-20(s0)
    1316:	3775                	jal	12c2 <__set_DEBUG_CR>
}
    1318:	0001                	nop
    131a:	50b2                	lw	ra,44(sp)
    131c:	5422                	lw	s0,40(sp)
    131e:	6145                	addi	sp,sp,48
    1320:	8082                	ret

00001322 <DBGMCU_GetCHIPID>:
 *  CH32X035G8R6-0x035B06x1
 *  CH32X035F7P6-0x035706x1
 *  CH32X033F8P6-0x035A06x1
 */
uint32_t DBGMCU_GetCHIPID( void )
{
    1322:	1141                	addi	sp,sp,-16
    1324:	c622                	sw	s0,12(sp)
    1326:	0800                	addi	s0,sp,16
	return( *( uint32_t * )0x1FFFF704 );
    1328:	1ffff7b7          	lui	a5,0x1ffff
    132c:	70478793          	addi	a5,a5,1796 # 1ffff704 <_data_lma+0x1fff04f8>
    1330:	439c                	lw	a5,0(a5)
}
    1332:	853e                	mv	a0,a5
    1334:	4432                	lw	s0,12(sp)
    1336:	0141                	addi	sp,sp,16
    1338:	8082                	ret

0000133a <DMA_DeInit>:
 *        1 to 8 for DMA1 to select the DMA Channel.
 *
 * @return  none
 */
void DMA_DeInit(DMA_Channel_TypeDef *DMAy_Channelx)
{
    133a:	1101                	addi	sp,sp,-32
    133c:	ce22                	sw	s0,28(sp)
    133e:	1000                	addi	s0,sp,32
    1340:	fea42623          	sw	a0,-20(s0)
    DMAy_Channelx->CFGR &= (uint16_t)(~DMA_CFGR1_EN);
    1344:	fec42783          	lw	a5,-20(s0)
    1348:	4398                	lw	a4,0(a5)
    134a:	67c1                	lui	a5,0x10
    134c:	17f9                	addi	a5,a5,-2
    134e:	8f7d                	and	a4,a4,a5
    1350:	fec42783          	lw	a5,-20(s0)
    1354:	c398                	sw	a4,0(a5)
    DMAy_Channelx->CFGR = 0;
    1356:	fec42783          	lw	a5,-20(s0)
    135a:	0007a023          	sw	zero,0(a5) # 10000 <_data_lma+0xdf4>
    DMAy_Channelx->CNTR = 0;
    135e:	fec42783          	lw	a5,-20(s0)
    1362:	0007a223          	sw	zero,4(a5)
    DMAy_Channelx->PADDR = 0;
    1366:	fec42783          	lw	a5,-20(s0)
    136a:	0007a423          	sw	zero,8(a5)
    DMAy_Channelx->MADDR = 0;
    136e:	fec42783          	lw	a5,-20(s0)
    1372:	0007a623          	sw	zero,12(a5)
    if(DMAy_Channelx == DMA1_Channel1)
    1376:	fec42703          	lw	a4,-20(s0)
    137a:	400207b7          	lui	a5,0x40020
    137e:	07a1                	addi	a5,a5,8
    1380:	00f71b63          	bne	a4,a5,1396 <DMA_DeInit+0x5c>
    {
        DMA1->INTFCR |= DMA1_Channel1_IT_Mask;
    1384:	400207b7          	lui	a5,0x40020
    1388:	43d8                	lw	a4,4(a5)
    138a:	400207b7          	lui	a5,0x40020
    138e:	00f76713          	ori	a4,a4,15
    1392:	c3d8                	sw	a4,4(a5)
    }
    else if(DMAy_Channelx == DMA1_Channel8)
    {
        DMA1->INTFCR |= DMA1_Channel8_IT_Mask;
    }
}
    1394:	a8e5                	j	148c <DMA_DeInit+0x152>
    else if(DMAy_Channelx == DMA1_Channel2)
    1396:	fec42703          	lw	a4,-20(s0)
    139a:	400207b7          	lui	a5,0x40020
    139e:	07f1                	addi	a5,a5,28
    13a0:	00f71b63          	bne	a4,a5,13b6 <DMA_DeInit+0x7c>
        DMA1->INTFCR |= DMA1_Channel2_IT_Mask;
    13a4:	400207b7          	lui	a5,0x40020
    13a8:	43d8                	lw	a4,4(a5)
    13aa:	400207b7          	lui	a5,0x40020
    13ae:	0f076713          	ori	a4,a4,240
    13b2:	c3d8                	sw	a4,4(a5)
}
    13b4:	a8e1                	j	148c <DMA_DeInit+0x152>
    else if(DMAy_Channelx == DMA1_Channel3)
    13b6:	fec42703          	lw	a4,-20(s0)
    13ba:	400207b7          	lui	a5,0x40020
    13be:	03078793          	addi	a5,a5,48 # 40020030 <_eusrstack+0x2001c030>
    13c2:	00f71d63          	bne	a4,a5,13dc <DMA_DeInit+0xa2>
        DMA1->INTFCR |= DMA1_Channel3_IT_Mask;
    13c6:	400207b7          	lui	a5,0x40020
    13ca:	43d4                	lw	a3,4(a5)
    13cc:	400207b7          	lui	a5,0x40020
    13d0:	6705                	lui	a4,0x1
    13d2:	f0070713          	addi	a4,a4,-256 # f00 <ADC_AnalogWatchdog1ThresholdsConfig+0x3a>
    13d6:	8f55                	or	a4,a4,a3
    13d8:	c3d8                	sw	a4,4(a5)
}
    13da:	a84d                	j	148c <DMA_DeInit+0x152>
    else if(DMAy_Channelx == DMA1_Channel4)
    13dc:	fec42703          	lw	a4,-20(s0)
    13e0:	400207b7          	lui	a5,0x40020
    13e4:	04478793          	addi	a5,a5,68 # 40020044 <_eusrstack+0x2001c044>
    13e8:	00f71b63          	bne	a4,a5,13fe <DMA_DeInit+0xc4>
        DMA1->INTFCR |= DMA1_Channel4_IT_Mask;
    13ec:	400207b7          	lui	a5,0x40020
    13f0:	43d4                	lw	a3,4(a5)
    13f2:	400207b7          	lui	a5,0x40020
    13f6:	673d                	lui	a4,0xf
    13f8:	8f55                	or	a4,a4,a3
    13fa:	c3d8                	sw	a4,4(a5)
}
    13fc:	a841                	j	148c <DMA_DeInit+0x152>
    else if(DMAy_Channelx == DMA1_Channel5)
    13fe:	fec42703          	lw	a4,-20(s0)
    1402:	400207b7          	lui	a5,0x40020
    1406:	05878793          	addi	a5,a5,88 # 40020058 <_eusrstack+0x2001c058>
    140a:	00f71c63          	bne	a4,a5,1422 <DMA_DeInit+0xe8>
        DMA1->INTFCR |= DMA1_Channel5_IT_Mask;
    140e:	400207b7          	lui	a5,0x40020
    1412:	43d4                	lw	a3,4(a5)
    1414:	400207b7          	lui	a5,0x40020
    1418:	000f0737          	lui	a4,0xf0
    141c:	8f55                	or	a4,a4,a3
    141e:	c3d8                	sw	a4,4(a5)
}
    1420:	a0b5                	j	148c <DMA_DeInit+0x152>
    else if(DMAy_Channelx == DMA1_Channel6)
    1422:	fec42703          	lw	a4,-20(s0)
    1426:	400207b7          	lui	a5,0x40020
    142a:	06c78793          	addi	a5,a5,108 # 4002006c <_eusrstack+0x2001c06c>
    142e:	00f71c63          	bne	a4,a5,1446 <DMA_DeInit+0x10c>
        DMA1->INTFCR |= DMA1_Channel6_IT_Mask;
    1432:	400207b7          	lui	a5,0x40020
    1436:	43d4                	lw	a3,4(a5)
    1438:	400207b7          	lui	a5,0x40020
    143c:	00f00737          	lui	a4,0xf00
    1440:	8f55                	or	a4,a4,a3
    1442:	c3d8                	sw	a4,4(a5)
}
    1444:	a0a1                	j	148c <DMA_DeInit+0x152>
    else if(DMAy_Channelx == DMA1_Channel7)
    1446:	fec42703          	lw	a4,-20(s0)
    144a:	400207b7          	lui	a5,0x40020
    144e:	08078793          	addi	a5,a5,128 # 40020080 <_eusrstack+0x2001c080>
    1452:	00f71c63          	bne	a4,a5,146a <DMA_DeInit+0x130>
        DMA1->INTFCR |= DMA1_Channel7_IT_Mask;
    1456:	400207b7          	lui	a5,0x40020
    145a:	43d4                	lw	a3,4(a5)
    145c:	400207b7          	lui	a5,0x40020
    1460:	0f000737          	lui	a4,0xf000
    1464:	8f55                	or	a4,a4,a3
    1466:	c3d8                	sw	a4,4(a5)
}
    1468:	a015                	j	148c <DMA_DeInit+0x152>
    else if(DMAy_Channelx == DMA1_Channel8)
    146a:	fec42703          	lw	a4,-20(s0)
    146e:	400207b7          	lui	a5,0x40020
    1472:	09478793          	addi	a5,a5,148 # 40020094 <_eusrstack+0x2001c094>
    1476:	00f71b63          	bne	a4,a5,148c <DMA_DeInit+0x152>
        DMA1->INTFCR |= DMA1_Channel8_IT_Mask;
    147a:	400207b7          	lui	a5,0x40020
    147e:	43d4                	lw	a3,4(a5)
    1480:	400207b7          	lui	a5,0x40020
    1484:	f0000737          	lui	a4,0xf0000
    1488:	8f55                	or	a4,a4,a3
    148a:	c3d8                	sw	a4,4(a5)
}
    148c:	0001                	nop
    148e:	4472                	lw	s0,28(sp)
    1490:	6105                	addi	sp,sp,32
    1492:	8082                	ret

00001494 <DMA_Init>:
 *        contains the configuration information for the specified DMA Channel.
 *
 * @return  none
 */
void DMA_Init(DMA_Channel_TypeDef *DMAy_Channelx, DMA_InitTypeDef *DMA_InitStruct)
{
    1494:	7179                	addi	sp,sp,-48
    1496:	d622                	sw	s0,44(sp)
    1498:	1800                	addi	s0,sp,48
    149a:	fca42e23          	sw	a0,-36(s0)
    149e:	fcb42c23          	sw	a1,-40(s0)
    uint32_t tmpreg = 0;
    14a2:	fe042623          	sw	zero,-20(s0)

    tmpreg = DMAy_Channelx->CFGR;
    14a6:	fdc42783          	lw	a5,-36(s0)
    14aa:	439c                	lw	a5,0(a5)
    14ac:	fef42623          	sw	a5,-20(s0)
    tmpreg &= CFGR_CLEAR_Mask;
    14b0:	fec42703          	lw	a4,-20(s0)
    14b4:	77e1                	lui	a5,0xffff8
    14b6:	07bd                	addi	a5,a5,15
    14b8:	8ff9                	and	a5,a5,a4
    14ba:	fef42623          	sw	a5,-20(s0)
    tmpreg |= DMA_InitStruct->DMA_DIR | DMA_InitStruct->DMA_Mode |
    14be:	fd842783          	lw	a5,-40(s0)
    14c2:	4798                	lw	a4,8(a5)
    14c4:	fd842783          	lw	a5,-40(s0)
    14c8:	539c                	lw	a5,32(a5)
    14ca:	8f5d                	or	a4,a4,a5
              DMA_InitStruct->DMA_PeripheralInc | DMA_InitStruct->DMA_MemoryInc |
    14cc:	fd842783          	lw	a5,-40(s0)
    14d0:	4b9c                	lw	a5,16(a5)
    tmpreg |= DMA_InitStruct->DMA_DIR | DMA_InitStruct->DMA_Mode |
    14d2:	8f5d                	or	a4,a4,a5
              DMA_InitStruct->DMA_PeripheralInc | DMA_InitStruct->DMA_MemoryInc |
    14d4:	fd842783          	lw	a5,-40(s0)
    14d8:	4bdc                	lw	a5,20(a5)
    14da:	8f5d                	or	a4,a4,a5
              DMA_InitStruct->DMA_PeripheralDataSize | DMA_InitStruct->DMA_MemoryDataSize |
    14dc:	fd842783          	lw	a5,-40(s0)
    14e0:	4f9c                	lw	a5,24(a5)
              DMA_InitStruct->DMA_PeripheralInc | DMA_InitStruct->DMA_MemoryInc |
    14e2:	8f5d                	or	a4,a4,a5
              DMA_InitStruct->DMA_PeripheralDataSize | DMA_InitStruct->DMA_MemoryDataSize |
    14e4:	fd842783          	lw	a5,-40(s0)
    14e8:	4fdc                	lw	a5,28(a5)
    14ea:	8f5d                	or	a4,a4,a5
              DMA_InitStruct->DMA_Priority | DMA_InitStruct->DMA_M2M;
    14ec:	fd842783          	lw	a5,-40(s0)
    14f0:	53dc                	lw	a5,36(a5)
              DMA_InitStruct->DMA_PeripheralDataSize | DMA_InitStruct->DMA_MemoryDataSize |
    14f2:	8f5d                	or	a4,a4,a5
              DMA_InitStruct->DMA_Priority | DMA_InitStruct->DMA_M2M;
    14f4:	fd842783          	lw	a5,-40(s0)
    14f8:	579c                	lw	a5,40(a5)
    14fa:	8fd9                	or	a5,a5,a4
    tmpreg |= DMA_InitStruct->DMA_DIR | DMA_InitStruct->DMA_Mode |
    14fc:	fec42703          	lw	a4,-20(s0)
    1500:	8fd9                	or	a5,a5,a4
    1502:	fef42623          	sw	a5,-20(s0)

    DMAy_Channelx->CFGR = tmpreg;
    1506:	fdc42783          	lw	a5,-36(s0)
    150a:	fec42703          	lw	a4,-20(s0)
    150e:	c398                	sw	a4,0(a5)
    DMAy_Channelx->CNTR = DMA_InitStruct->DMA_BufferSize;
    1510:	fd842783          	lw	a5,-40(s0)
    1514:	47d8                	lw	a4,12(a5)
    1516:	fdc42783          	lw	a5,-36(s0)
    151a:	c3d8                	sw	a4,4(a5)
    DMAy_Channelx->PADDR = DMA_InitStruct->DMA_PeripheralBaseAddr;
    151c:	fd842783          	lw	a5,-40(s0)
    1520:	4398                	lw	a4,0(a5)
    1522:	fdc42783          	lw	a5,-36(s0)
    1526:	c798                	sw	a4,8(a5)
    DMAy_Channelx->MADDR = DMA_InitStruct->DMA_MemoryBaseAddr;
    1528:	fd842783          	lw	a5,-40(s0)
    152c:	43d8                	lw	a4,4(a5)
    152e:	fdc42783          	lw	a5,-36(s0)
    1532:	c7d8                	sw	a4,12(a5)
}
    1534:	0001                	nop
    1536:	5432                	lw	s0,44(sp)
    1538:	6145                	addi	sp,sp,48
    153a:	8082                	ret

0000153c <DMA_StructInit>:
 *        contains the configuration information for the specified DMA Channel.
 *
 * @return  none
 */
void DMA_StructInit(DMA_InitTypeDef *DMA_InitStruct)
{
    153c:	1101                	addi	sp,sp,-32
    153e:	ce22                	sw	s0,28(sp)
    1540:	1000                	addi	s0,sp,32
    1542:	fea42623          	sw	a0,-20(s0)
    DMA_InitStruct->DMA_PeripheralBaseAddr = 0;
    1546:	fec42783          	lw	a5,-20(s0)
    154a:	0007a023          	sw	zero,0(a5) # ffff8000 <_eusrstack+0xdfff4000>
    DMA_InitStruct->DMA_MemoryBaseAddr = 0;
    154e:	fec42783          	lw	a5,-20(s0)
    1552:	0007a223          	sw	zero,4(a5)
    DMA_InitStruct->DMA_DIR = DMA_DIR_PeripheralSRC;
    1556:	fec42783          	lw	a5,-20(s0)
    155a:	0007a423          	sw	zero,8(a5)
    DMA_InitStruct->DMA_BufferSize = 0;
    155e:	fec42783          	lw	a5,-20(s0)
    1562:	0007a623          	sw	zero,12(a5)
    DMA_InitStruct->DMA_PeripheralInc = DMA_PeripheralInc_Disable;
    1566:	fec42783          	lw	a5,-20(s0)
    156a:	0007a823          	sw	zero,16(a5)
    DMA_InitStruct->DMA_MemoryInc = DMA_MemoryInc_Disable;
    156e:	fec42783          	lw	a5,-20(s0)
    1572:	0007aa23          	sw	zero,20(a5)
    DMA_InitStruct->DMA_PeripheralDataSize = DMA_PeripheralDataSize_Byte;
    1576:	fec42783          	lw	a5,-20(s0)
    157a:	0007ac23          	sw	zero,24(a5)
    DMA_InitStruct->DMA_MemoryDataSize = DMA_MemoryDataSize_Byte;
    157e:	fec42783          	lw	a5,-20(s0)
    1582:	0007ae23          	sw	zero,28(a5)
    DMA_InitStruct->DMA_Mode = DMA_Mode_Normal;
    1586:	fec42783          	lw	a5,-20(s0)
    158a:	0207a023          	sw	zero,32(a5)
    DMA_InitStruct->DMA_Priority = DMA_Priority_Low;
    158e:	fec42783          	lw	a5,-20(s0)
    1592:	0207a223          	sw	zero,36(a5)
    DMA_InitStruct->DMA_M2M = DMA_M2M_Disable;
    1596:	fec42783          	lw	a5,-20(s0)
    159a:	0207a423          	sw	zero,40(a5)
}
    159e:	0001                	nop
    15a0:	4472                	lw	s0,28(sp)
    15a2:	6105                	addi	sp,sp,32
    15a4:	8082                	ret

000015a6 <DMA_Cmd>:
 *          NewState - new state of the DMAy Channelx(ENABLE or DISABLE).
 *
 * @return  none
 */
void DMA_Cmd(DMA_Channel_TypeDef *DMAy_Channelx, FunctionalState NewState)
{
    15a6:	1101                	addi	sp,sp,-32
    15a8:	ce22                	sw	s0,28(sp)
    15aa:	1000                	addi	s0,sp,32
    15ac:	fea42623          	sw	a0,-20(s0)
    15b0:	feb42423          	sw	a1,-24(s0)
    if(NewState != DISABLE)
    15b4:	fe842783          	lw	a5,-24(s0)
    15b8:	cb91                	beqz	a5,15cc <DMA_Cmd+0x26>
    {
        DMAy_Channelx->CFGR |= DMA_CFGR1_EN;
    15ba:	fec42783          	lw	a5,-20(s0)
    15be:	439c                	lw	a5,0(a5)
    15c0:	0017e713          	ori	a4,a5,1
    15c4:	fec42783          	lw	a5,-20(s0)
    15c8:	c398                	sw	a4,0(a5)
    }
    else
    {
        DMAy_Channelx->CFGR &= (uint16_t)(~DMA_CFGR1_EN);
    }
}
    15ca:	a811                	j	15de <DMA_Cmd+0x38>
        DMAy_Channelx->CFGR &= (uint16_t)(~DMA_CFGR1_EN);
    15cc:	fec42783          	lw	a5,-20(s0)
    15d0:	4398                	lw	a4,0(a5)
    15d2:	67c1                	lui	a5,0x10
    15d4:	17f9                	addi	a5,a5,-2
    15d6:	8f7d                	and	a4,a4,a5
    15d8:	fec42783          	lw	a5,-20(s0)
    15dc:	c398                	sw	a4,0(a5)
}
    15de:	0001                	nop
    15e0:	4472                	lw	s0,28(sp)
    15e2:	6105                	addi	sp,sp,32
    15e4:	8082                	ret

000015e6 <DMA_ITConfig>:
 *          NewState - new state of the DMAy Channelx(ENABLE or DISABLE).
 *
 * @return  none
 */
void DMA_ITConfig(DMA_Channel_TypeDef *DMAy_Channelx, uint32_t DMA_IT, FunctionalState NewState)
{
    15e6:	1101                	addi	sp,sp,-32
    15e8:	ce22                	sw	s0,28(sp)
    15ea:	1000                	addi	s0,sp,32
    15ec:	fea42623          	sw	a0,-20(s0)
    15f0:	feb42423          	sw	a1,-24(s0)
    15f4:	fec42223          	sw	a2,-28(s0)
    if(NewState != DISABLE)
    15f8:	fe442783          	lw	a5,-28(s0)
    15fc:	cb99                	beqz	a5,1612 <DMA_ITConfig+0x2c>
    {
        DMAy_Channelx->CFGR |= DMA_IT;
    15fe:	fec42783          	lw	a5,-20(s0)
    1602:	4398                	lw	a4,0(a5)
    1604:	fe842783          	lw	a5,-24(s0)
    1608:	8f5d                	or	a4,a4,a5
    160a:	fec42783          	lw	a5,-20(s0)
    160e:	c398                	sw	a4,0(a5)
    }
    else
    {
        DMAy_Channelx->CFGR &= ~DMA_IT;
    }
}
    1610:	a821                	j	1628 <DMA_ITConfig+0x42>
        DMAy_Channelx->CFGR &= ~DMA_IT;
    1612:	fec42783          	lw	a5,-20(s0)
    1616:	4398                	lw	a4,0(a5)
    1618:	fe842783          	lw	a5,-24(s0)
    161c:	fff7c793          	not	a5,a5
    1620:	8f7d                	and	a4,a4,a5
    1622:	fec42783          	lw	a5,-20(s0)
    1626:	c398                	sw	a4,0(a5)
}
    1628:	0001                	nop
    162a:	4472                	lw	s0,28(sp)
    162c:	6105                	addi	sp,sp,32
    162e:	8082                	ret

00001630 <DMA_SetCurrDataCounter>:
 *        transfer.
 *
 * @return  none
 */
void DMA_SetCurrDataCounter(DMA_Channel_TypeDef *DMAy_Channelx, uint16_t DataNumber)
{
    1630:	1101                	addi	sp,sp,-32
    1632:	ce22                	sw	s0,28(sp)
    1634:	1000                	addi	s0,sp,32
    1636:	fea42623          	sw	a0,-20(s0)
    163a:	87ae                	mv	a5,a1
    163c:	fef41523          	sh	a5,-22(s0)
    DMAy_Channelx->CNTR = DataNumber;
    1640:	fea45703          	lhu	a4,-22(s0)
    1644:	fec42783          	lw	a5,-20(s0)
    1648:	c3d8                	sw	a4,4(a5)
}
    164a:	0001                	nop
    164c:	4472                	lw	s0,28(sp)
    164e:	6105                	addi	sp,sp,32
    1650:	8082                	ret

00001652 <DMA_GetCurrDataCounter>:
 *
 * @return  DataNumber - The number of remaining data units in the current
 *        DMAy Channelx transfer.
 */
uint16_t DMA_GetCurrDataCounter(DMA_Channel_TypeDef *DMAy_Channelx)
{
    1652:	1101                	addi	sp,sp,-32
    1654:	ce22                	sw	s0,28(sp)
    1656:	1000                	addi	s0,sp,32
    1658:	fea42623          	sw	a0,-20(s0)
    return ((uint16_t)(DMAy_Channelx->CNTR));
    165c:	fec42783          	lw	a5,-20(s0)
    1660:	43dc                	lw	a5,4(a5)
    1662:	07c2                	slli	a5,a5,0x10
    1664:	83c1                	srli	a5,a5,0x10
}
    1666:	853e                	mv	a0,a5
    1668:	4472                	lw	s0,28(sp)
    166a:	6105                	addi	sp,sp,32
    166c:	8082                	ret

0000166e <DMA_GetFlagStatus>:
 *            DMA1_FLAG_TE8 - DMA1 Channel8 transfer error flag.

 * @return  The new state of DMAy_FLAG (SET or RESET).
 */
FlagStatus DMA_GetFlagStatus(uint32_t DMAy_FLAG)
{
    166e:	7179                	addi	sp,sp,-48
    1670:	d622                	sw	s0,44(sp)
    1672:	1800                	addi	s0,sp,48
    1674:	fca42e23          	sw	a0,-36(s0)
    FlagStatus bitstatus = RESET;
    1678:	fe042623          	sw	zero,-20(s0)
    uint32_t   tmpreg = 0;
    167c:	fe042423          	sw	zero,-24(s0)

    tmpreg = DMA1->INTFR;
    1680:	400207b7          	lui	a5,0x40020
    1684:	439c                	lw	a5,0(a5)
    1686:	fef42423          	sw	a5,-24(s0)

    if((tmpreg & DMAy_FLAG) != (uint32_t)RESET)
    168a:	fe842703          	lw	a4,-24(s0)
    168e:	fdc42783          	lw	a5,-36(s0)
    1692:	8ff9                	and	a5,a5,a4
    1694:	c789                	beqz	a5,169e <DMA_GetFlagStatus+0x30>
    {
        bitstatus = SET;
    1696:	4785                	li	a5,1
    1698:	fef42623          	sw	a5,-20(s0)
    169c:	a019                	j	16a2 <DMA_GetFlagStatus+0x34>
    }
    else
    {
        bitstatus = RESET;
    169e:	fe042623          	sw	zero,-20(s0)
    }

    return bitstatus;
    16a2:	fec42783          	lw	a5,-20(s0)
}
    16a6:	853e                	mv	a0,a5
    16a8:	5432                	lw	s0,44(sp)
    16aa:	6145                	addi	sp,sp,48
    16ac:	8082                	ret

000016ae <DMA_ClearFlag>:
 *            DMA1_FLAG_HT8 - DMA1 Channel8 half transfer flag.
 *            DMA1_FLAG_TE8 - DMA1 Channel8 transfer error flag.
 * @return  none
 */
void DMA_ClearFlag(uint32_t DMAy_FLAG)
{
    16ae:	1101                	addi	sp,sp,-32
    16b0:	ce22                	sw	s0,28(sp)
    16b2:	1000                	addi	s0,sp,32
    16b4:	fea42623          	sw	a0,-20(s0)
    DMA1->INTFCR = DMAy_FLAG;
    16b8:	400207b7          	lui	a5,0x40020
    16bc:	fec42703          	lw	a4,-20(s0)
    16c0:	c3d8                	sw	a4,4(a5)
}
    16c2:	0001                	nop
    16c4:	4472                	lw	s0,28(sp)
    16c6:	6105                	addi	sp,sp,32
    16c8:	8082                	ret

000016ca <DMA_GetITStatus>:
 *            DMA1_IT_HT8 - DMA1 Channel8 half transfer flag.
 *            DMA1_IT_TE8 - DMA1 Channel8 transfer error flag.
 * @return  The new state of DMAy_IT (SET or RESET).
 */
ITStatus DMA_GetITStatus(uint32_t DMAy_IT)
{
    16ca:	7179                	addi	sp,sp,-48
    16cc:	d622                	sw	s0,44(sp)
    16ce:	1800                	addi	s0,sp,48
    16d0:	fca42e23          	sw	a0,-36(s0)
    ITStatus bitstatus = RESET;
    16d4:	fe042623          	sw	zero,-20(s0)
    uint32_t tmpreg = 0;
    16d8:	fe042423          	sw	zero,-24(s0)

    tmpreg = DMA1->INTFR;
    16dc:	400207b7          	lui	a5,0x40020
    16e0:	439c                	lw	a5,0(a5)
    16e2:	fef42423          	sw	a5,-24(s0)

    if((tmpreg & DMAy_IT) != (uint32_t)RESET)
    16e6:	fe842703          	lw	a4,-24(s0)
    16ea:	fdc42783          	lw	a5,-36(s0)
    16ee:	8ff9                	and	a5,a5,a4
    16f0:	c789                	beqz	a5,16fa <DMA_GetITStatus+0x30>
    {
        bitstatus = SET;
    16f2:	4785                	li	a5,1
    16f4:	fef42623          	sw	a5,-20(s0)
    16f8:	a019                	j	16fe <DMA_GetITStatus+0x34>
    }
    else
    {
        bitstatus = RESET;
    16fa:	fe042623          	sw	zero,-20(s0)
    }
    return bitstatus;
    16fe:	fec42783          	lw	a5,-20(s0)
}
    1702:	853e                	mv	a0,a5
    1704:	5432                	lw	s0,44(sp)
    1706:	6145                	addi	sp,sp,48
    1708:	8082                	ret

0000170a <DMA_ClearITPendingBit>:
 *            DMA1_IT_HT8 - DMA1 Channel8 half transfer flag.
 *            DMA1_IT_TE8 - DMA1 Channel8 transfer error flag.
 * @return  none
 */
void DMA_ClearITPendingBit(uint32_t DMAy_IT)
{
    170a:	1101                	addi	sp,sp,-32
    170c:	ce22                	sw	s0,28(sp)
    170e:	1000                	addi	s0,sp,32
    1710:	fea42623          	sw	a0,-20(s0)
    DMA1->INTFCR = DMAy_IT;
    1714:	400207b7          	lui	a5,0x40020
    1718:	fec42703          	lw	a4,-20(s0)
    171c:	c3d8                	sw	a4,4(a5)
}
    171e:	0001                	nop
    1720:	4472                	lw	s0,28(sp)
    1722:	6105                	addi	sp,sp,32
    1724:	8082                	ret

00001726 <EXTI_DeInit>:
 *        reset values.
 *
 * @return  none.
 */
void EXTI_DeInit(void)
{
    1726:	1141                	addi	sp,sp,-16
    1728:	c622                	sw	s0,12(sp)
    172a:	0800                	addi	s0,sp,16
    EXTI->INTENR = 0x00000000;
    172c:	400107b7          	lui	a5,0x40010
    1730:	40078793          	addi	a5,a5,1024 # 40010400 <_eusrstack+0x2000c400>
    1734:	0007a023          	sw	zero,0(a5)
    EXTI->EVENR = 0x00000000;
    1738:	400107b7          	lui	a5,0x40010
    173c:	40078793          	addi	a5,a5,1024 # 40010400 <_eusrstack+0x2000c400>
    1740:	0007a223          	sw	zero,4(a5)
    EXTI->RTENR = 0x00000000;
    1744:	400107b7          	lui	a5,0x40010
    1748:	40078793          	addi	a5,a5,1024 # 40010400 <_eusrstack+0x2000c400>
    174c:	0007a423          	sw	zero,8(a5)
    EXTI->FTENR = 0x00000000;
    1750:	400107b7          	lui	a5,0x40010
    1754:	40078793          	addi	a5,a5,1024 # 40010400 <_eusrstack+0x2000c400>
    1758:	0007a623          	sw	zero,12(a5)
    EXTI->INTFR = 0x000FFFFF;
    175c:	400107b7          	lui	a5,0x40010
    1760:	40078793          	addi	a5,a5,1024 # 40010400 <_eusrstack+0x2000c400>
    1764:	00100737          	lui	a4,0x100
    1768:	177d                	addi	a4,a4,-1
    176a:	cbd8                	sw	a4,20(a5)
}
    176c:	0001                	nop
    176e:	4432                	lw	s0,12(sp)
    1770:	0141                	addi	sp,sp,16
    1772:	8082                	ret

00001774 <EXTI_Init>:
 * @param   EXTI_InitStruct: pointer to a EXTI_InitTypeDef structure
 *
 * @return  none.
 */
void EXTI_Init(EXTI_InitTypeDef *EXTI_InitStruct)
{
    1774:	7179                	addi	sp,sp,-48
    1776:	d622                	sw	s0,44(sp)
    1778:	1800                	addi	s0,sp,48
    177a:	fca42e23          	sw	a0,-36(s0)
    uint32_t tmp = 0;
    177e:	fe042623          	sw	zero,-20(s0)

    tmp = (uint32_t)EXTI_BASE;
    1782:	400107b7          	lui	a5,0x40010
    1786:	40078793          	addi	a5,a5,1024 # 40010400 <_eusrstack+0x2000c400>
    178a:	fef42623          	sw	a5,-20(s0)
    if(EXTI_InitStruct->EXTI_LineCmd != DISABLE)
    178e:	fdc42783          	lw	a5,-36(s0)
    1792:	47dc                	lw	a5,12(a5)
    1794:	12078063          	beqz	a5,18b4 <EXTI_Init+0x140>
    {
        EXTI->INTENR &= ~EXTI_InitStruct->EXTI_Line;
    1798:	400107b7          	lui	a5,0x40010
    179c:	40078793          	addi	a5,a5,1024 # 40010400 <_eusrstack+0x2000c400>
    17a0:	4394                	lw	a3,0(a5)
    17a2:	fdc42783          	lw	a5,-36(s0)
    17a6:	439c                	lw	a5,0(a5)
    17a8:	fff7c713          	not	a4,a5
    17ac:	400107b7          	lui	a5,0x40010
    17b0:	40078793          	addi	a5,a5,1024 # 40010400 <_eusrstack+0x2000c400>
    17b4:	8f75                	and	a4,a4,a3
    17b6:	c398                	sw	a4,0(a5)
        EXTI->EVENR &= ~EXTI_InitStruct->EXTI_Line;
    17b8:	400107b7          	lui	a5,0x40010
    17bc:	40078793          	addi	a5,a5,1024 # 40010400 <_eusrstack+0x2000c400>
    17c0:	43d4                	lw	a3,4(a5)
    17c2:	fdc42783          	lw	a5,-36(s0)
    17c6:	439c                	lw	a5,0(a5)
    17c8:	fff7c713          	not	a4,a5
    17cc:	400107b7          	lui	a5,0x40010
    17d0:	40078793          	addi	a5,a5,1024 # 40010400 <_eusrstack+0x2000c400>
    17d4:	8f75                	and	a4,a4,a3
    17d6:	c3d8                	sw	a4,4(a5)
        tmp += EXTI_InitStruct->EXTI_Mode;
    17d8:	fdc42783          	lw	a5,-36(s0)
    17dc:	43dc                	lw	a5,4(a5)
    17de:	fec42703          	lw	a4,-20(s0)
    17e2:	97ba                	add	a5,a5,a4
    17e4:	fef42623          	sw	a5,-20(s0)
        *(__IO uint32_t *)tmp |= EXTI_InitStruct->EXTI_Line;
    17e8:	fec42783          	lw	a5,-20(s0)
    17ec:	4394                	lw	a3,0(a5)
    17ee:	fdc42783          	lw	a5,-36(s0)
    17f2:	4398                	lw	a4,0(a5)
    17f4:	fec42783          	lw	a5,-20(s0)
    17f8:	8f55                	or	a4,a4,a3
    17fa:	c398                	sw	a4,0(a5)
        EXTI->RTENR &= ~EXTI_InitStruct->EXTI_Line;
    17fc:	400107b7          	lui	a5,0x40010
    1800:	40078793          	addi	a5,a5,1024 # 40010400 <_eusrstack+0x2000c400>
    1804:	4794                	lw	a3,8(a5)
    1806:	fdc42783          	lw	a5,-36(s0)
    180a:	439c                	lw	a5,0(a5)
    180c:	fff7c713          	not	a4,a5
    1810:	400107b7          	lui	a5,0x40010
    1814:	40078793          	addi	a5,a5,1024 # 40010400 <_eusrstack+0x2000c400>
    1818:	8f75                	and	a4,a4,a3
    181a:	c798                	sw	a4,8(a5)
        EXTI->FTENR &= ~EXTI_InitStruct->EXTI_Line;
    181c:	400107b7          	lui	a5,0x40010
    1820:	40078793          	addi	a5,a5,1024 # 40010400 <_eusrstack+0x2000c400>
    1824:	47d4                	lw	a3,12(a5)
    1826:	fdc42783          	lw	a5,-36(s0)
    182a:	439c                	lw	a5,0(a5)
    182c:	fff7c713          	not	a4,a5
    1830:	400107b7          	lui	a5,0x40010
    1834:	40078793          	addi	a5,a5,1024 # 40010400 <_eusrstack+0x2000c400>
    1838:	8f75                	and	a4,a4,a3
    183a:	c7d8                	sw	a4,12(a5)
        if(EXTI_InitStruct->EXTI_Trigger == EXTI_Trigger_Rising_Falling)
    183c:	fdc42783          	lw	a5,-36(s0)
    1840:	4798                	lw	a4,8(a5)
    1842:	47c1                	li	a5,16
    1844:	02f71f63          	bne	a4,a5,1882 <EXTI_Init+0x10e>
        {
            EXTI->RTENR |= EXTI_InitStruct->EXTI_Line;
    1848:	400107b7          	lui	a5,0x40010
    184c:	40078793          	addi	a5,a5,1024 # 40010400 <_eusrstack+0x2000c400>
    1850:	4794                	lw	a3,8(a5)
    1852:	fdc42783          	lw	a5,-36(s0)
    1856:	4398                	lw	a4,0(a5)
    1858:	400107b7          	lui	a5,0x40010
    185c:	40078793          	addi	a5,a5,1024 # 40010400 <_eusrstack+0x2000c400>
    1860:	8f55                	or	a4,a4,a3
    1862:	c798                	sw	a4,8(a5)
            EXTI->FTENR |= EXTI_InitStruct->EXTI_Line;
    1864:	400107b7          	lui	a5,0x40010
    1868:	40078793          	addi	a5,a5,1024 # 40010400 <_eusrstack+0x2000c400>
    186c:	47d4                	lw	a3,12(a5)
    186e:	fdc42783          	lw	a5,-36(s0)
    1872:	4398                	lw	a4,0(a5)
    1874:	400107b7          	lui	a5,0x40010
    1878:	40078793          	addi	a5,a5,1024 # 40010400 <_eusrstack+0x2000c400>
    187c:	8f55                	or	a4,a4,a3
    187e:	c7d8                	sw	a4,12(a5)
    else
    {
        tmp += EXTI_InitStruct->EXTI_Mode;
        *(__IO uint32_t *)tmp &= ~EXTI_InitStruct->EXTI_Line;
    }
}
    1880:	a8b1                	j	18dc <EXTI_Init+0x168>
            tmp = (uint32_t)EXTI_BASE;
    1882:	400107b7          	lui	a5,0x40010
    1886:	40078793          	addi	a5,a5,1024 # 40010400 <_eusrstack+0x2000c400>
    188a:	fef42623          	sw	a5,-20(s0)
            tmp += EXTI_InitStruct->EXTI_Trigger;
    188e:	fdc42783          	lw	a5,-36(s0)
    1892:	479c                	lw	a5,8(a5)
    1894:	fec42703          	lw	a4,-20(s0)
    1898:	97ba                	add	a5,a5,a4
    189a:	fef42623          	sw	a5,-20(s0)
            *(__IO uint32_t *)tmp |= EXTI_InitStruct->EXTI_Line;
    189e:	fec42783          	lw	a5,-20(s0)
    18a2:	4394                	lw	a3,0(a5)
    18a4:	fdc42783          	lw	a5,-36(s0)
    18a8:	4398                	lw	a4,0(a5)
    18aa:	fec42783          	lw	a5,-20(s0)
    18ae:	8f55                	or	a4,a4,a3
    18b0:	c398                	sw	a4,0(a5)
}
    18b2:	a02d                	j	18dc <EXTI_Init+0x168>
        tmp += EXTI_InitStruct->EXTI_Mode;
    18b4:	fdc42783          	lw	a5,-36(s0)
    18b8:	43dc                	lw	a5,4(a5)
    18ba:	fec42703          	lw	a4,-20(s0)
    18be:	97ba                	add	a5,a5,a4
    18c0:	fef42623          	sw	a5,-20(s0)
        *(__IO uint32_t *)tmp &= ~EXTI_InitStruct->EXTI_Line;
    18c4:	fec42783          	lw	a5,-20(s0)
    18c8:	4394                	lw	a3,0(a5)
    18ca:	fdc42783          	lw	a5,-36(s0)
    18ce:	439c                	lw	a5,0(a5)
    18d0:	fff7c713          	not	a4,a5
    18d4:	fec42783          	lw	a5,-20(s0)
    18d8:	8f75                	and	a4,a4,a3
    18da:	c398                	sw	a4,0(a5)
}
    18dc:	0001                	nop
    18de:	5432                	lw	s0,44(sp)
    18e0:	6145                	addi	sp,sp,48
    18e2:	8082                	ret

000018e4 <EXTI_StructInit>:
 * @param   EXTI_InitStruct - pointer to a EXTI_InitTypeDef structure
 *
 * @return  none.
 */
void EXTI_StructInit(EXTI_InitTypeDef *EXTI_InitStruct)
{
    18e4:	1101                	addi	sp,sp,-32
    18e6:	ce22                	sw	s0,28(sp)
    18e8:	1000                	addi	s0,sp,32
    18ea:	fea42623          	sw	a0,-20(s0)
    EXTI_InitStruct->EXTI_Line = EXTI_LINENONE;
    18ee:	fec42783          	lw	a5,-20(s0)
    18f2:	0007a023          	sw	zero,0(a5)
    EXTI_InitStruct->EXTI_Mode = EXTI_Mode_Interrupt;
    18f6:	fec42783          	lw	a5,-20(s0)
    18fa:	0007a223          	sw	zero,4(a5)
    EXTI_InitStruct->EXTI_Trigger = EXTI_Trigger_Falling;
    18fe:	fec42783          	lw	a5,-20(s0)
    1902:	4731                	li	a4,12
    1904:	c798                	sw	a4,8(a5)
    EXTI_InitStruct->EXTI_LineCmd = DISABLE;
    1906:	fec42783          	lw	a5,-20(s0)
    190a:	0007a623          	sw	zero,12(a5)
}
    190e:	0001                	nop
    1910:	4472                	lw	s0,28(sp)
    1912:	6105                	addi	sp,sp,32
    1914:	8082                	ret

00001916 <EXTI_GenerateSWInterrupt>:
 * @param   EXTI_Line - specifies the EXTI lines to be enabled or disabled.
 *
 * @return  none.
 */
void EXTI_GenerateSWInterrupt(uint32_t EXTI_Line)
{
    1916:	1101                	addi	sp,sp,-32
    1918:	ce22                	sw	s0,28(sp)
    191a:	1000                	addi	s0,sp,32
    191c:	fea42623          	sw	a0,-20(s0)
    EXTI->SWIEVR |= EXTI_Line;
    1920:	400107b7          	lui	a5,0x40010
    1924:	40078793          	addi	a5,a5,1024 # 40010400 <_eusrstack+0x2000c400>
    1928:	4b94                	lw	a3,16(a5)
    192a:	400107b7          	lui	a5,0x40010
    192e:	40078793          	addi	a5,a5,1024 # 40010400 <_eusrstack+0x2000c400>
    1932:	fec42703          	lw	a4,-20(s0)
    1936:	8f55                	or	a4,a4,a3
    1938:	cb98                	sw	a4,16(a5)
}
    193a:	0001                	nop
    193c:	4472                	lw	s0,28(sp)
    193e:	6105                	addi	sp,sp,32
    1940:	8082                	ret

00001942 <EXTI_GetFlagStatus>:
 * @param   EXTI_Line - specifies the EXTI lines to be enabled or disabled.
 *
 * @return  The new state of EXTI_Line (SET or RESET).
 */
FlagStatus EXTI_GetFlagStatus(uint32_t EXTI_Line)
{
    1942:	7179                	addi	sp,sp,-48
    1944:	d622                	sw	s0,44(sp)
    1946:	1800                	addi	s0,sp,48
    1948:	fca42e23          	sw	a0,-36(s0)
    FlagStatus bitstatus = RESET;
    194c:	fe042623          	sw	zero,-20(s0)
    if((EXTI->INTFR & EXTI_Line) != (uint32_t)RESET)
    1950:	400107b7          	lui	a5,0x40010
    1954:	40078793          	addi	a5,a5,1024 # 40010400 <_eusrstack+0x2000c400>
    1958:	4bd8                	lw	a4,20(a5)
    195a:	fdc42783          	lw	a5,-36(s0)
    195e:	8ff9                	and	a5,a5,a4
    1960:	c789                	beqz	a5,196a <EXTI_GetFlagStatus+0x28>
    {
        bitstatus = SET;
    1962:	4785                	li	a5,1
    1964:	fef42623          	sw	a5,-20(s0)
    1968:	a019                	j	196e <EXTI_GetFlagStatus+0x2c>
    }
    else
    {
        bitstatus = RESET;
    196a:	fe042623          	sw	zero,-20(s0)
    }
    return bitstatus;
    196e:	fec42783          	lw	a5,-20(s0)
}
    1972:	853e                	mv	a0,a5
    1974:	5432                	lw	s0,44(sp)
    1976:	6145                	addi	sp,sp,48
    1978:	8082                	ret

0000197a <EXTI_ClearFlag>:
 * @param   EXTI_Line - specifies the EXTI lines to be enabled or disabled.
 *
 * @return  None
 */
void EXTI_ClearFlag(uint32_t EXTI_Line)
{
    197a:	1101                	addi	sp,sp,-32
    197c:	ce22                	sw	s0,28(sp)
    197e:	1000                	addi	s0,sp,32
    1980:	fea42623          	sw	a0,-20(s0)
    EXTI->INTFR = EXTI_Line;
    1984:	400107b7          	lui	a5,0x40010
    1988:	40078793          	addi	a5,a5,1024 # 40010400 <_eusrstack+0x2000c400>
    198c:	fec42703          	lw	a4,-20(s0)
    1990:	cbd8                	sw	a4,20(a5)
}
    1992:	0001                	nop
    1994:	4472                	lw	s0,28(sp)
    1996:	6105                	addi	sp,sp,32
    1998:	8082                	ret

0000199a <EXTI_GetITStatus>:
 * @param   EXTI_Line - specifies the EXTI lines to be enabled or disabled.
 *
 * @return  The new state of EXTI_Line (SET or RESET).
 */
ITStatus EXTI_GetITStatus(uint32_t EXTI_Line)
{
    199a:	7179                	addi	sp,sp,-48
    199c:	d622                	sw	s0,44(sp)
    199e:	1800                	addi	s0,sp,48
    19a0:	fca42e23          	sw	a0,-36(s0)
    ITStatus bitstatus = RESET;
    19a4:	fe042623          	sw	zero,-20(s0)
    uint32_t enablestatus = 0;
    19a8:	fe042423          	sw	zero,-24(s0)

    enablestatus = EXTI->INTENR & EXTI_Line;
    19ac:	400107b7          	lui	a5,0x40010
    19b0:	40078793          	addi	a5,a5,1024 # 40010400 <_eusrstack+0x2000c400>
    19b4:	439c                	lw	a5,0(a5)
    19b6:	fdc42703          	lw	a4,-36(s0)
    19ba:	8ff9                	and	a5,a5,a4
    19bc:	fef42423          	sw	a5,-24(s0)
    if(((EXTI->INTFR & EXTI_Line) != (uint32_t)RESET) && (enablestatus != (uint32_t)RESET))
    19c0:	400107b7          	lui	a5,0x40010
    19c4:	40078793          	addi	a5,a5,1024 # 40010400 <_eusrstack+0x2000c400>
    19c8:	4bd8                	lw	a4,20(a5)
    19ca:	fdc42783          	lw	a5,-36(s0)
    19ce:	8ff9                	and	a5,a5,a4
    19d0:	cb81                	beqz	a5,19e0 <EXTI_GetITStatus+0x46>
    19d2:	fe842783          	lw	a5,-24(s0)
    19d6:	c789                	beqz	a5,19e0 <EXTI_GetITStatus+0x46>
    {
        bitstatus = SET;
    19d8:	4785                	li	a5,1
    19da:	fef42623          	sw	a5,-20(s0)
    19de:	a019                	j	19e4 <EXTI_GetITStatus+0x4a>
    }
    else
    {
        bitstatus = RESET;
    19e0:	fe042623          	sw	zero,-20(s0)
    }
    return bitstatus;
    19e4:	fec42783          	lw	a5,-20(s0)
}
    19e8:	853e                	mv	a0,a5
    19ea:	5432                	lw	s0,44(sp)
    19ec:	6145                	addi	sp,sp,48
    19ee:	8082                	ret

000019f0 <EXTI_ClearITPendingBit>:
 * @param   EXTI_Line - specifies the EXTI lines to be enabled or disabled.
 *
 * @return  none
 */
void EXTI_ClearITPendingBit(uint32_t EXTI_Line)
{
    19f0:	1101                	addi	sp,sp,-32
    19f2:	ce22                	sw	s0,28(sp)
    19f4:	1000                	addi	s0,sp,32
    19f6:	fea42623          	sw	a0,-20(s0)
    EXTI->INTFR = EXTI_Line;
    19fa:	400107b7          	lui	a5,0x40010
    19fe:	40078793          	addi	a5,a5,1024 # 40010400 <_eusrstack+0x2000c400>
    1a02:	fec42703          	lw	a4,-20(s0)
    1a06:	cbd8                	sw	a4,20(a5)
}
    1a08:	0001                	nop
    1a0a:	4472                	lw	s0,28(sp)
    1a0c:	6105                	addi	sp,sp,32
    1a0e:	8082                	ret

00001a10 <FLASH_SetLatency>:
  *                    FLASH_Latency_2 - FLASH Two Latency cycles
  *
  * @return         None
  */
void FLASH_SetLatency(uint32_t FLASH_Latency)
{
    1a10:	7179                	addi	sp,sp,-48
    1a12:	d622                	sw	s0,44(sp)
    1a14:	1800                	addi	s0,sp,48
    1a16:	fca42e23          	sw	a0,-36(s0)
    uint32_t tmpreg = 0;
    1a1a:	fe042623          	sw	zero,-20(s0)

    tmpreg = FLASH->ACTLR;
    1a1e:	400227b7          	lui	a5,0x40022
    1a22:	439c                	lw	a5,0(a5)
    1a24:	fef42623          	sw	a5,-20(s0)
    tmpreg &= ACR_LATENCY_Mask;
    1a28:	fec42783          	lw	a5,-20(s0)
    1a2c:	0387f793          	andi	a5,a5,56
    1a30:	fef42623          	sw	a5,-20(s0)
    tmpreg |= FLASH_Latency;
    1a34:	fec42703          	lw	a4,-20(s0)
    1a38:	fdc42783          	lw	a5,-36(s0)
    1a3c:	8fd9                	or	a5,a5,a4
    1a3e:	fef42623          	sw	a5,-20(s0)
    FLASH->ACTLR = tmpreg;
    1a42:	400227b7          	lui	a5,0x40022
    1a46:	fec42703          	lw	a4,-20(s0)
    1a4a:	c398                	sw	a4,0(a5)
}
    1a4c:	0001                	nop
    1a4e:	5432                	lw	s0,44(sp)
    1a50:	6145                	addi	sp,sp,48
    1a52:	8082                	ret

00001a54 <FLASH_Unlock>:
 * @brief          Unlocks the FLASH Program Erase Controller.
 *
 * @return         None
 */
void FLASH_Unlock(void)
{
    1a54:	1141                	addi	sp,sp,-16
    1a56:	c622                	sw	s0,12(sp)
    1a58:	0800                	addi	s0,sp,16
    /* Authorize the FPEC of Bank1 Access */
    FLASH->KEYR = FLASH_KEY1;
    1a5a:	400227b7          	lui	a5,0x40022
    1a5e:	45670737          	lui	a4,0x45670
    1a62:	12370713          	addi	a4,a4,291 # 45670123 <_eusrstack+0x2566c123>
    1a66:	c3d8                	sw	a4,4(a5)
    FLASH->KEYR = FLASH_KEY2;
    1a68:	400227b7          	lui	a5,0x40022
    1a6c:	cdef9737          	lui	a4,0xcdef9
    1a70:	9ab70713          	addi	a4,a4,-1621 # cdef89ab <_eusrstack+0xadef49ab>
    1a74:	c3d8                	sw	a4,4(a5)
}
    1a76:	0001                	nop
    1a78:	4432                	lw	s0,12(sp)
    1a7a:	0141                	addi	sp,sp,16
    1a7c:	8082                	ret

00001a7e <FLASH_Lock>:
 * @brief          Locks the FLASH Program Erase Controller.
 *
 * @return         None
 */
void FLASH_Lock(void)
{
    1a7e:	1141                	addi	sp,sp,-16
    1a80:	c622                	sw	s0,12(sp)
    1a82:	0800                	addi	s0,sp,16
    FLASH->CTLR |= CR_LOCK_Set;
    1a84:	400227b7          	lui	a5,0x40022
    1a88:	4b98                	lw	a4,16(a5)
    1a8a:	400227b7          	lui	a5,0x40022
    1a8e:	08076713          	ori	a4,a4,128
    1a92:	cb98                	sw	a4,16(a5)
}
    1a94:	0001                	nop
    1a96:	4432                	lw	s0,12(sp)
    1a98:	0141                	addi	sp,sp,16
    1a9a:	8082                	ret

00001a9c <FLASH_ErasePage>:
 *
 * @return         FLASH Status - The returned value can be: FLASH_BUSY, FLASH_ERROR_PG,
 *                 FLASH_ERROR_WRP, FLASH_COMPLETE or FLASH_TIMEOUT.
 */
FLASH_Status FLASH_ErasePage(uint32_t Page_Address)
{
    1a9c:	7179                	addi	sp,sp,-48
    1a9e:	d606                	sw	ra,44(sp)
    1aa0:	d422                	sw	s0,40(sp)
    1aa2:	1800                	addi	s0,sp,48
    1aa4:	fca42e23          	sw	a0,-36(s0)
    FLASH_Status status = FLASH_COMPLETE;
    1aa8:	4791                	li	a5,4
    1aaa:	fef42623          	sw	a5,-20(s0)

    status = FLASH_WaitForLastOperation(EraseTimeout);
    1aae:	000b0537          	lui	a0,0xb0
    1ab2:	2511                	jal	20b6 <FLASH_WaitForLastOperation>
    1ab4:	fea42623          	sw	a0,-20(s0)

    if(status == FLASH_COMPLETE)
    1ab8:	fec42703          	lw	a4,-20(s0)
    1abc:	4791                	li	a5,4
    1abe:	04f71363          	bne	a4,a5,1b04 <FLASH_ErasePage+0x68>
    {
        FLASH->CTLR |= CR_PER_Set;
    1ac2:	400227b7          	lui	a5,0x40022
    1ac6:	4b98                	lw	a4,16(a5)
    1ac8:	400227b7          	lui	a5,0x40022
    1acc:	00276713          	ori	a4,a4,2
    1ad0:	cb98                	sw	a4,16(a5)
        FLASH->ADDR = Page_Address;
    1ad2:	400227b7          	lui	a5,0x40022
    1ad6:	fdc42703          	lw	a4,-36(s0)
    1ada:	cbd8                	sw	a4,20(a5)
        FLASH->CTLR |= CR_STRT_Set;
    1adc:	400227b7          	lui	a5,0x40022
    1ae0:	4b98                	lw	a4,16(a5)
    1ae2:	400227b7          	lui	a5,0x40022
    1ae6:	04076713          	ori	a4,a4,64
    1aea:	cb98                	sw	a4,16(a5)

        status = FLASH_WaitForLastOperation(EraseTimeout);
    1aec:	000b0537          	lui	a0,0xb0
    1af0:	23d9                	jal	20b6 <FLASH_WaitForLastOperation>
    1af2:	fea42623          	sw	a0,-20(s0)

        FLASH->CTLR &= CR_PER_Reset;
    1af6:	400227b7          	lui	a5,0x40022
    1afa:	4b98                	lw	a4,16(a5)
    1afc:	400227b7          	lui	a5,0x40022
    1b00:	9b75                	andi	a4,a4,-3
    1b02:	cb98                	sw	a4,16(a5)
    }

    return status;
    1b04:	fec42783          	lw	a5,-20(s0)
}
    1b08:	853e                	mv	a0,a5
    1b0a:	50b2                	lw	ra,44(sp)
    1b0c:	5422                	lw	s0,40(sp)
    1b0e:	6145                	addi	sp,sp,48
    1b10:	8082                	ret

00001b12 <FLASH_EraseAllPages>:
 *
 * @return         FLASH Status - The returned value can be:FLASH_BUSY, FLASH_ERROR_PG,
 *                 FLASH_ERROR_WRP, FLASH_COMPLETE or FLASH_TIMEOUT.
 */
FLASH_Status FLASH_EraseAllPages(void)
{
    1b12:	1101                	addi	sp,sp,-32
    1b14:	ce06                	sw	ra,28(sp)
    1b16:	cc22                	sw	s0,24(sp)
    1b18:	1000                	addi	s0,sp,32
    FLASH_Status status = FLASH_COMPLETE;
    1b1a:	4791                	li	a5,4
    1b1c:	fef42623          	sw	a5,-20(s0)

    status = FLASH_WaitForLastOperation(EraseTimeout);
    1b20:	000b0537          	lui	a0,0xb0
    1b24:	2b49                	jal	20b6 <FLASH_WaitForLastOperation>
    1b26:	fea42623          	sw	a0,-20(s0)
    if(status == FLASH_COMPLETE)
    1b2a:	fec42703          	lw	a4,-20(s0)
    1b2e:	4791                	li	a5,4
    1b30:	02f71e63          	bne	a4,a5,1b6c <FLASH_EraseAllPages+0x5a>
    {
        FLASH->CTLR |= CR_MER_Set;
    1b34:	400227b7          	lui	a5,0x40022
    1b38:	4b98                	lw	a4,16(a5)
    1b3a:	400227b7          	lui	a5,0x40022
    1b3e:	00476713          	ori	a4,a4,4
    1b42:	cb98                	sw	a4,16(a5)
        FLASH->CTLR |= CR_STRT_Set;
    1b44:	400227b7          	lui	a5,0x40022
    1b48:	4b98                	lw	a4,16(a5)
    1b4a:	400227b7          	lui	a5,0x40022
    1b4e:	04076713          	ori	a4,a4,64
    1b52:	cb98                	sw	a4,16(a5)

        status = FLASH_WaitForLastOperation(EraseTimeout);
    1b54:	000b0537          	lui	a0,0xb0
    1b58:	2bb9                	jal	20b6 <FLASH_WaitForLastOperation>
    1b5a:	fea42623          	sw	a0,-20(s0)

        FLASH->CTLR &= CR_MER_Reset;
    1b5e:	400227b7          	lui	a5,0x40022
    1b62:	4b98                	lw	a4,16(a5)
    1b64:	400227b7          	lui	a5,0x40022
    1b68:	9b6d                	andi	a4,a4,-5
    1b6a:	cb98                	sw	a4,16(a5)
    }

    return status;
    1b6c:	fec42783          	lw	a5,-20(s0)
}
    1b70:	853e                	mv	a0,a5
    1b72:	40f2                	lw	ra,28(sp)
    1b74:	4462                	lw	s0,24(sp)
    1b76:	6105                	addi	sp,sp,32
    1b78:	8082                	ret

00001b7a <FLASH_EraseOptionBytes>:
 *
 * @return         FLASH Status - The returned value can be: FLASH_BUSY, FLASH_ERROR_PG,
 *                 FLASH_ERROR_WRP, FLASH_COMPLETE or FLASH_TIMEOUT.
 */
FLASH_Status FLASH_EraseOptionBytes(void)
{
    1b7a:	1101                	addi	sp,sp,-32
    1b7c:	ce06                	sw	ra,28(sp)
    1b7e:	cc22                	sw	s0,24(sp)
    1b80:	1000                	addi	s0,sp,32
    FLASH_Status status = FLASH_COMPLETE;
    1b82:	4791                	li	a5,4
    1b84:	fef42623          	sw	a5,-20(s0)

    status = FLASH_WaitForLastOperation(EraseTimeout);
    1b88:	000b0537          	lui	a0,0xb0
    1b8c:	232d                	jal	20b6 <FLASH_WaitForLastOperation>
    1b8e:	fea42623          	sw	a0,-20(s0)
    if(status == FLASH_COMPLETE)
    1b92:	fec42703          	lw	a4,-20(s0)
    1b96:	4791                	li	a5,4
    1b98:	04f71f63          	bne	a4,a5,1bf6 <FLASH_EraseOptionBytes+0x7c>
    {
        FLASH_Unlock();
    1b9c:	3d65                	jal	1a54 <FLASH_Unlock>

        FLASH->OBKEYR = FLASH_KEY1;
    1b9e:	400227b7          	lui	a5,0x40022
    1ba2:	45670737          	lui	a4,0x45670
    1ba6:	12370713          	addi	a4,a4,291 # 45670123 <_eusrstack+0x2566c123>
    1baa:	c798                	sw	a4,8(a5)
        FLASH->OBKEYR = FLASH_KEY2;
    1bac:	400227b7          	lui	a5,0x40022
    1bb0:	cdef9737          	lui	a4,0xcdef9
    1bb4:	9ab70713          	addi	a4,a4,-1621 # cdef89ab <_eusrstack+0xadef49ab>
    1bb8:	c798                	sw	a4,8(a5)

        FLASH->CTLR |= CR_OPTER_Set;
    1bba:	400227b7          	lui	a5,0x40022
    1bbe:	4b98                	lw	a4,16(a5)
    1bc0:	400227b7          	lui	a5,0x40022
    1bc4:	02076713          	ori	a4,a4,32
    1bc8:	cb98                	sw	a4,16(a5)
        FLASH->CTLR |= CR_STRT_Set;
    1bca:	400227b7          	lui	a5,0x40022
    1bce:	4b98                	lw	a4,16(a5)
    1bd0:	400227b7          	lui	a5,0x40022
    1bd4:	04076713          	ori	a4,a4,64
    1bd8:	cb98                	sw	a4,16(a5)
        status = FLASH_WaitForLastOperation(EraseTimeout);
    1bda:	000b0537          	lui	a0,0xb0
    1bde:	29e1                	jal	20b6 <FLASH_WaitForLastOperation>
    1be0:	fea42623          	sw	a0,-20(s0)

        FLASH->CTLR &= CR_OPTER_Reset;
    1be4:	400227b7          	lui	a5,0x40022
    1be8:	4b98                	lw	a4,16(a5)
    1bea:	400227b7          	lui	a5,0x40022
    1bee:	fdf77713          	andi	a4,a4,-33
    1bf2:	cb98                	sw	a4,16(a5)

        FLASH_Lock();
    1bf4:	3569                	jal	1a7e <FLASH_Lock>
    }
    return status;
    1bf6:	fec42783          	lw	a5,-20(s0)
}
    1bfa:	853e                	mv	a0,a5
    1bfc:	40f2                	lw	ra,28(sp)
    1bfe:	4462                	lw	s0,24(sp)
    1c00:	6105                	addi	sp,sp,32
    1c02:	8082                	ret

00001c04 <FLASH_OptionBytePR>:
 * @param     pbuf - data.
 *
 * @return    none
 */
void FLASH_OptionBytePR(u32* pbuf)
{
    1c04:	7179                	addi	sp,sp,-48
    1c06:	d606                	sw	ra,44(sp)
    1c08:	d422                	sw	s0,40(sp)
    1c0a:	1800                	addi	s0,sp,48
    1c0c:	fca42e23          	sw	a0,-36(s0)
    uint8_t i;

    FLASH_EraseOptionBytes();
    1c10:	37ad                	jal	1b7a <FLASH_EraseOptionBytes>
    FLASH_Unlock_Fast();
    1c12:	23b1                	jal	215e <FLASH_Unlock_Fast>
    FLASH_BufReset();
    1c14:	237d                	jal	21c2 <FLASH_BufReset>

    for(i=0; i<4; i++)
    1c16:	fe0407a3          	sb	zero,-17(s0)
    1c1a:	a815                	j	1c4e <FLASH_OptionBytePR+0x4a>
    {
        FLASH_BufLoad((OB_BASE + 4*i), *pbuf++);
    1c1c:	fef44783          	lbu	a5,-17(s0)
    1c20:	078a                	slli	a5,a5,0x2
    1c22:	873e                	mv	a4,a5
    1c24:	200007b7          	lui	a5,0x20000
    1c28:	80078793          	addi	a5,a5,-2048 # 1ffff800 <_data_lma+0x1fff05f4>
    1c2c:	00f706b3          	add	a3,a4,a5
    1c30:	fdc42783          	lw	a5,-36(s0)
    1c34:	00478713          	addi	a4,a5,4
    1c38:	fce42e23          	sw	a4,-36(s0)
    1c3c:	439c                	lw	a5,0(a5)
    1c3e:	85be                	mv	a1,a5
    1c40:	8536                	mv	a0,a3
    1c42:	23f9                	jal	2210 <FLASH_BufLoad>
    for(i=0; i<4; i++)
    1c44:	fef44783          	lbu	a5,-17(s0)
    1c48:	0785                	addi	a5,a5,1
    1c4a:	fef407a3          	sb	a5,-17(s0)
    1c4e:	fef44703          	lbu	a4,-17(s0)
    1c52:	478d                	li	a5,3
    1c54:	fce7f4e3          	bgeu	a5,a4,1c1c <FLASH_OptionBytePR+0x18>
    }

    FLASH_ProgramPage_Fast(OB_BASE);
    1c58:	200007b7          	lui	a5,0x20000
    1c5c:	80078513          	addi	a0,a5,-2048 # 1ffff800 <_data_lma+0x1fff05f4>
    1c60:	2dd9                	jal	2336 <FLASH_ProgramPage_Fast>
    FLASH_Lock_Fast();
    1c62:	2389                	jal	21a4 <FLASH_Lock_Fast>
}
    1c64:	0001                	nop
    1c66:	50b2                	lw	ra,44(sp)
    1c68:	5422                	lw	s0,40(sp)
    1c6a:	6145                	addi	sp,sp,48
    1c6c:	8082                	ret

00001c6e <FLASH_EnableWriteProtection>:
 *
 * @return  FLASH Status - The returned value can be: FLASH_BUSY, FLASH_ERROR_PG,
 *        FLASH_ERROR_WRP, FLASH_COMPLETE , FLASH_TIMEOUT or FLASH_RDP.
 */
FLASH_Status FLASH_EnableWriteProtection(uint32_t FLASH_Pages)
{
    1c6e:	7139                	addi	sp,sp,-64
    1c70:	de06                	sw	ra,60(sp)
    1c72:	dc22                	sw	s0,56(sp)
    1c74:	0080                	addi	s0,sp,64
    1c76:	fca42623          	sw	a0,-52(s0)
    uint8_t     WRP0_Data = 0xFF, WRP1_Data = 0xFF, WRP2_Data = 0xFF, WRP3_Data = 0xFF;
    1c7a:	57fd                	li	a5,-1
    1c7c:	fef403a3          	sb	a5,-25(s0)
    1c80:	57fd                	li	a5,-1
    1c82:	fef40323          	sb	a5,-26(s0)
    1c86:	57fd                	li	a5,-1
    1c88:	fef402a3          	sb	a5,-27(s0)
    1c8c:	57fd                	li	a5,-1
    1c8e:	fef40223          	sb	a5,-28(s0)
    uint32_t buf[4];
    uint8_t i;
    FLASH_Status status = FLASH_COMPLETE;
    1c92:	4791                	li	a5,4
    1c94:	fef42423          	sw	a5,-24(s0)

    if((FLASH->OBR & RDPRT_Mask) != (uint32_t)RESET)
    1c98:	400227b7          	lui	a5,0x40022
    1c9c:	4fdc                	lw	a5,28(a5)
    1c9e:	8b89                	andi	a5,a5,2
    1ca0:	c789                	beqz	a5,1caa <FLASH_EnableWriteProtection+0x3c>
    {
        status = FLASH_RDP;
    1ca2:	4799                	li	a5,6
    1ca4:	fef42423          	sw	a5,-24(s0)
    1ca8:	a0fd                	j	1d96 <FLASH_EnableWriteProtection+0x128>
    }
    else{
        FLASH_Pages = (uint32_t)(~FLASH_Pages);
    1caa:	fcc42783          	lw	a5,-52(s0)
    1cae:	fff7c793          	not	a5,a5
    1cb2:	fcf42623          	sw	a5,-52(s0)
        WRP0_Data = (uint8_t)(FLASH_Pages & WRP0_Mask);
    1cb6:	fcc42783          	lw	a5,-52(s0)
    1cba:	fef403a3          	sb	a5,-25(s0)
        WRP1_Data = (uint8_t)((FLASH_Pages & WRP1_Mask) >> 8);
    1cbe:	fcc42783          	lw	a5,-52(s0)
    1cc2:	83a1                	srli	a5,a5,0x8
    1cc4:	fef40323          	sb	a5,-26(s0)
        WRP2_Data = (uint8_t)((FLASH_Pages & WRP2_Mask) >> 16);
    1cc8:	fcc42783          	lw	a5,-52(s0)
    1ccc:	83c1                	srli	a5,a5,0x10
    1cce:	fef402a3          	sb	a5,-27(s0)
        WRP3_Data = (uint8_t)((FLASH_Pages & WRP3_Mask) >> 24);
    1cd2:	fcc42783          	lw	a5,-52(s0)
    1cd6:	83e1                	srli	a5,a5,0x18
    1cd8:	fef40223          	sb	a5,-28(s0)

        status = FLASH_WaitForLastOperation(ProgramTimeout);
    1cdc:	6515                	lui	a0,0x5
    1cde:	2ee1                	jal	20b6 <FLASH_WaitForLastOperation>
    1ce0:	fea42423          	sw	a0,-24(s0)

        if(status == FLASH_COMPLETE)
    1ce4:	fe842703          	lw	a4,-24(s0)
    1ce8:	4791                	li	a5,4
    1cea:	0af71663          	bne	a4,a5,1d96 <FLASH_EnableWriteProtection+0x128>
        {
            for(i=0; i<4; i++){
    1cee:	fe0407a3          	sb	zero,-17(s0)
    1cf2:	a80d                	j	1d24 <FLASH_EnableWriteProtection+0xb6>
                buf[i] = *(uint32_t*)(OB_BASE + 4*i);
    1cf4:	fef44783          	lbu	a5,-17(s0)
    1cf8:	078a                	slli	a5,a5,0x2
    1cfa:	873e                	mv	a4,a5
    1cfc:	200007b7          	lui	a5,0x20000
    1d00:	80078793          	addi	a5,a5,-2048 # 1ffff800 <_data_lma+0x1fff05f4>
    1d04:	97ba                	add	a5,a5,a4
    1d06:	873e                	mv	a4,a5
    1d08:	fef44783          	lbu	a5,-17(s0)
    1d0c:	4318                	lw	a4,0(a4)
    1d0e:	078a                	slli	a5,a5,0x2
    1d10:	ff040693          	addi	a3,s0,-16
    1d14:	97b6                	add	a5,a5,a3
    1d16:	fee7a223          	sw	a4,-28(a5)
            for(i=0; i<4; i++){
    1d1a:	fef44783          	lbu	a5,-17(s0)
    1d1e:	0785                	addi	a5,a5,1
    1d20:	fef407a3          	sb	a5,-17(s0)
    1d24:	fef44703          	lbu	a4,-17(s0)
    1d28:	478d                	li	a5,3
    1d2a:	fce7f5e3          	bgeu	a5,a4,1cf4 <FLASH_EnableWriteProtection+0x86>
            }

            buf[2] = ((uint32_t)(((uint32_t)(WRP0_Data) & 0x00FF) + (((uint32_t)(~WRP0_Data) & 0x00FF) << 8) \
    1d2e:	fe744703          	lbu	a4,-25(s0)
    1d32:	fe744783          	lbu	a5,-25(s0)
    1d36:	fff7c793          	not	a5,a5
    1d3a:	00879693          	slli	a3,a5,0x8
    1d3e:	67c1                	lui	a5,0x10
    1d40:	17fd                	addi	a5,a5,-1
    1d42:	8ff5                	and	a5,a5,a3
    1d44:	973e                	add	a4,a4,a5
                   + (((uint32_t)(WRP1_Data) & 0x00FF) << 16) + (((uint32_t)(~WRP1_Data) & 0x00FF) << 24)));
    1d46:	fe644783          	lbu	a5,-26(s0)
    1d4a:	07c2                	slli	a5,a5,0x10
    1d4c:	973e                	add	a4,a4,a5
    1d4e:	fe644783          	lbu	a5,-26(s0)
    1d52:	fff7c793          	not	a5,a5
    1d56:	07e2                	slli	a5,a5,0x18
            buf[2] = ((uint32_t)(((uint32_t)(WRP0_Data) & 0x00FF) + (((uint32_t)(~WRP0_Data) & 0x00FF) << 8) \
    1d58:	97ba                	add	a5,a5,a4
    1d5a:	fcf42e23          	sw	a5,-36(s0)
            buf[3] = ((uint32_t)(((uint32_t)(WRP2_Data) & 0x00FF) + (((uint32_t)(~WRP2_Data) & 0x00FF) << 8) \
    1d5e:	fe544703          	lbu	a4,-27(s0)
    1d62:	fe544783          	lbu	a5,-27(s0)
    1d66:	fff7c793          	not	a5,a5
    1d6a:	00879693          	slli	a3,a5,0x8
    1d6e:	67c1                	lui	a5,0x10
    1d70:	17fd                	addi	a5,a5,-1
    1d72:	8ff5                	and	a5,a5,a3
    1d74:	973e                	add	a4,a4,a5
                   + (((uint32_t)(WRP3_Data) & 0x00FF) << 16) + (((uint32_t)(~WRP3_Data) & 0x00FF) << 24)));
    1d76:	fe444783          	lbu	a5,-28(s0)
    1d7a:	07c2                	slli	a5,a5,0x10
    1d7c:	973e                	add	a4,a4,a5
    1d7e:	fe444783          	lbu	a5,-28(s0)
    1d82:	fff7c793          	not	a5,a5
    1d86:	07e2                	slli	a5,a5,0x18
            buf[3] = ((uint32_t)(((uint32_t)(WRP2_Data) & 0x00FF) + (((uint32_t)(~WRP2_Data) & 0x00FF) << 8) \
    1d88:	97ba                	add	a5,a5,a4
    1d8a:	fef42023          	sw	a5,-32(s0)

            FLASH_OptionBytePR(buf);
    1d8e:	fd440793          	addi	a5,s0,-44
    1d92:	853e                	mv	a0,a5
    1d94:	3d85                	jal	1c04 <FLASH_OptionBytePR>
        }
    }

    return status;
    1d96:	fe842783          	lw	a5,-24(s0)
}
    1d9a:	853e                	mv	a0,a5
    1d9c:	50f2                	lw	ra,60(sp)
    1d9e:	5462                	lw	s0,56(sp)
    1da0:	6121                	addi	sp,sp,64
    1da2:	8082                	ret

00001da4 <FLASH_EnableReadOutProtection>:
 *
 * @return  FLASH Status - The returned value can be: FLASH_BUSY, FLASH_ERROR_PG,
 *        FLASH_ERROR_WRP, FLASH_COMPLETE, FLASH_TIMEOUT or FLASH_RDP.
 */
FLASH_Status FLASH_EnableReadOutProtection(void)
{
    1da4:	7179                	addi	sp,sp,-48
    1da6:	d606                	sw	ra,44(sp)
    1da8:	d422                	sw	s0,40(sp)
    1daa:	1800                	addi	s0,sp,48
    FLASH_Status status = FLASH_COMPLETE;
    1dac:	4791                	li	a5,4
    1dae:	fef42623          	sw	a5,-20(s0)
    uint32_t buf[4];
    uint8_t i;

    if((FLASH->OBR & RDPRT_Mask) != (uint32_t)RESET)
    1db2:	400227b7          	lui	a5,0x40022
    1db6:	4fdc                	lw	a5,28(a5)
    1db8:	8b89                	andi	a5,a5,2
    1dba:	c789                	beqz	a5,1dc4 <FLASH_EnableReadOutProtection+0x20>
    {
        status = FLASH_RDP;
    1dbc:	4799                	li	a5,6
    1dbe:	fef42623          	sw	a5,-20(s0)
    1dc2:	a0bd                	j	1e30 <FLASH_EnableReadOutProtection+0x8c>
    }
    else{
        status = FLASH_WaitForLastOperation(EraseTimeout);
    1dc4:	000b0537          	lui	a0,0xb0
    1dc8:	24fd                	jal	20b6 <FLASH_WaitForLastOperation>
    1dca:	fea42623          	sw	a0,-20(s0)
        if(status == FLASH_COMPLETE)
    1dce:	fec42703          	lw	a4,-20(s0)
    1dd2:	4791                	li	a5,4
    1dd4:	04f71e63          	bne	a4,a5,1e30 <FLASH_EnableReadOutProtection+0x8c>
        {
            for(i=0; i<4; i++){
    1dd8:	fe0405a3          	sb	zero,-21(s0)
    1ddc:	a80d                	j	1e0e <FLASH_EnableReadOutProtection+0x6a>
                buf[i] = *(uint32_t*)(OB_BASE + 4*i);
    1dde:	feb44783          	lbu	a5,-21(s0)
    1de2:	078a                	slli	a5,a5,0x2
    1de4:	873e                	mv	a4,a5
    1de6:	200007b7          	lui	a5,0x20000
    1dea:	80078793          	addi	a5,a5,-2048 # 1ffff800 <_data_lma+0x1fff05f4>
    1dee:	97ba                	add	a5,a5,a4
    1df0:	873e                	mv	a4,a5
    1df2:	feb44783          	lbu	a5,-21(s0)
    1df6:	4318                	lw	a4,0(a4)
    1df8:	078a                	slli	a5,a5,0x2
    1dfa:	ff040693          	addi	a3,s0,-16
    1dfe:	97b6                	add	a5,a5,a3
    1e00:	fee7a423          	sw	a4,-24(a5)
            for(i=0; i<4; i++){
    1e04:	feb44783          	lbu	a5,-21(s0)
    1e08:	0785                	addi	a5,a5,1
    1e0a:	fef405a3          	sb	a5,-21(s0)
    1e0e:	feb44703          	lbu	a4,-21(s0)
    1e12:	478d                	li	a5,3
    1e14:	fce7f5e3          	bgeu	a5,a4,1dde <FLASH_EnableReadOutProtection+0x3a>
            }

            buf[0] = 0x000000FF + (buf[0] & 0xFFFF0000);
    1e18:	fd842703          	lw	a4,-40(s0)
    1e1c:	77c1                	lui	a5,0xffff0
    1e1e:	8ff9                	and	a5,a5,a4
    1e20:	0ff78793          	addi	a5,a5,255 # ffff00ff <_eusrstack+0xdffec0ff>
    1e24:	fcf42c23          	sw	a5,-40(s0)
            FLASH_OptionBytePR(buf);
    1e28:	fd840793          	addi	a5,s0,-40
    1e2c:	853e                	mv	a0,a5
    1e2e:	3bd9                	jal	1c04 <FLASH_OptionBytePR>
        }
    }

    return status;
    1e30:	fec42783          	lw	a5,-20(s0)
}
    1e34:	853e                	mv	a0,a5
    1e36:	50b2                	lw	ra,44(sp)
    1e38:	5422                	lw	s0,40(sp)
    1e3a:	6145                	addi	sp,sp,48
    1e3c:	8082                	ret

00001e3e <FLASH_UserOptionByteConfig>:
 *
 * @return  FLASH Status - The returned value can be: FLASH_BUSY, FLASH_ERROR_PG,
 *        FLASH_ERROR_WRP, FLASH_COMPLETE , FLASH_TIMEOUT or FLASH_RDP.
 */
FLASH_Status FLASH_UserOptionByteConfig(uint8_t OB_IWDG, uint8_t OB_STOP, uint8_t OB_STDBY, uint8_t OB_RST)
{
    1e3e:	7139                	addi	sp,sp,-64
    1e40:	de06                	sw	ra,60(sp)
    1e42:	dc22                	sw	s0,56(sp)
    1e44:	0080                	addi	s0,sp,64
    1e46:	87aa                	mv	a5,a0
    1e48:	8736                	mv	a4,a3
    1e4a:	fcf407a3          	sb	a5,-49(s0)
    1e4e:	87ae                	mv	a5,a1
    1e50:	fcf40723          	sb	a5,-50(s0)
    1e54:	87b2                	mv	a5,a2
    1e56:	fcf406a3          	sb	a5,-51(s0)
    1e5a:	87ba                	mv	a5,a4
    1e5c:	fcf40623          	sb	a5,-52(s0)
    FLASH_Status status = FLASH_COMPLETE;
    1e60:	4791                	li	a5,4
    1e62:	fef42623          	sw	a5,-20(s0)
    uint8_t UserByte;
    uint32_t buf[4];
    uint8_t i;

    if((FLASH->OBR & RDPRT_Mask) != (uint32_t)RESET)
    1e66:	400227b7          	lui	a5,0x40022
    1e6a:	4fdc                	lw	a5,28(a5)
    1e6c:	8b89                	andi	a5,a5,2
    1e6e:	c789                	beqz	a5,1e78 <FLASH_UserOptionByteConfig+0x3a>
    {
        status = FLASH_RDP;
    1e70:	4799                	li	a5,6
    1e72:	fef42623          	sw	a5,-20(s0)
    1e76:	a851                	j	1f0a <FLASH_UserOptionByteConfig+0xcc>
    }
    else{
        UserByte = OB_IWDG | (uint8_t)(OB_STOP | (uint8_t)(OB_STDBY | (uint8_t)(OB_RST | (uint8_t)0xE0)));
    1e78:	fcc44703          	lbu	a4,-52(s0)
    1e7c:	fcd44783          	lbu	a5,-51(s0)
    1e80:	8fd9                	or	a5,a5,a4
    1e82:	0ff7f713          	andi	a4,a5,255
    1e86:	fce44783          	lbu	a5,-50(s0)
    1e8a:	8fd9                	or	a5,a5,a4
    1e8c:	0ff7f713          	andi	a4,a5,255
    1e90:	fcf44783          	lbu	a5,-49(s0)
    1e94:	8fd9                	or	a5,a5,a4
    1e96:	0ff7f793          	andi	a5,a5,255
    1e9a:	fe07e793          	ori	a5,a5,-32
    1e9e:	fef40523          	sb	a5,-22(s0)

        for(i=0; i<4; i++){
    1ea2:	fe0405a3          	sb	zero,-21(s0)
    1ea6:	a80d                	j	1ed8 <FLASH_UserOptionByteConfig+0x9a>
            buf[i] = *(uint32_t*)(OB_BASE + 4*i);
    1ea8:	feb44783          	lbu	a5,-21(s0)
    1eac:	078a                	slli	a5,a5,0x2
    1eae:	873e                	mv	a4,a5
    1eb0:	200007b7          	lui	a5,0x20000
    1eb4:	80078793          	addi	a5,a5,-2048 # 1ffff800 <_data_lma+0x1fff05f4>
    1eb8:	97ba                	add	a5,a5,a4
    1eba:	873e                	mv	a4,a5
    1ebc:	feb44783          	lbu	a5,-21(s0)
    1ec0:	4318                	lw	a4,0(a4)
    1ec2:	078a                	slli	a5,a5,0x2
    1ec4:	ff040693          	addi	a3,s0,-16
    1ec8:	97b6                	add	a5,a5,a3
    1eca:	fee7a423          	sw	a4,-24(a5)
        for(i=0; i<4; i++){
    1ece:	feb44783          	lbu	a5,-21(s0)
    1ed2:	0785                	addi	a5,a5,1
    1ed4:	fef405a3          	sb	a5,-21(s0)
    1ed8:	feb44703          	lbu	a4,-21(s0)
    1edc:	478d                	li	a5,3
    1ede:	fce7f5e3          	bgeu	a5,a4,1ea8 <FLASH_UserOptionByteConfig+0x6a>
        }
        buf[0] = ((uint32_t)((((uint32_t)(UserByte) & 0x00FF) << 16) + (((uint32_t)(~UserByte) & 0x00FF) << 24))) + 0x00005AA5;
    1ee2:	fea44783          	lbu	a5,-22(s0)
    1ee6:	01079713          	slli	a4,a5,0x10
    1eea:	fea44783          	lbu	a5,-22(s0)
    1eee:	fff7c793          	not	a5,a5
    1ef2:	07e2                	slli	a5,a5,0x18
    1ef4:	973e                	add	a4,a4,a5
    1ef6:	6799                	lui	a5,0x6
    1ef8:	aa578793          	addi	a5,a5,-1371 # 5aa5 <TIM_OC4Init+0xbb>
    1efc:	97ba                	add	a5,a5,a4
    1efe:	fcf42c23          	sw	a5,-40(s0)

        FLASH_OptionBytePR(buf);
    1f02:	fd840793          	addi	a5,s0,-40
    1f06:	853e                	mv	a0,a5
    1f08:	39f5                	jal	1c04 <FLASH_OptionBytePR>
    }

    return status;
    1f0a:	fec42783          	lw	a5,-20(s0)
}
    1f0e:	853e                	mv	a0,a5
    1f10:	50f2                	lw	ra,60(sp)
    1f12:	5462                	lw	s0,56(sp)
    1f14:	6121                	addi	sp,sp,64
    1f16:	8082                	ret

00001f18 <FLASH_GetUserOptionByte>:
 * @return  The FLASH User Option Bytes values:IWDG_SW(Bit0), RST_STOP(Bit1),
 *          RST_STDBY(Bit2) ,RST_MOD(bit[4:3]) ,DATA0(bit[17:10]) and
 *          DATA1(bit[25:18]).
 */
uint32_t FLASH_GetUserOptionByte(void)
{
    1f18:	1141                	addi	sp,sp,-16
    1f1a:	c622                	sw	s0,12(sp)
    1f1c:	0800                	addi	s0,sp,16
    return (uint32_t)(FLASH->OBR >> 2);
    1f1e:	400227b7          	lui	a5,0x40022
    1f22:	4fdc                	lw	a5,28(a5)
    1f24:	8389                	srli	a5,a5,0x2
}
    1f26:	853e                	mv	a0,a5
    1f28:	4432                	lw	s0,12(sp)
    1f2a:	0141                	addi	sp,sp,16
    1f2c:	8082                	ret

00001f2e <FLASH_GetWriteProtectionOptionByte>:
 * @brief   Returns the FLASH Write Protection Option Bytes Register value.
 *
 * @return  The FLASH Write Protection Option Bytes Register value.
 */
uint32_t FLASH_GetWriteProtectionOptionByte(void)
{
    1f2e:	1141                	addi	sp,sp,-16
    1f30:	c622                	sw	s0,12(sp)
    1f32:	0800                	addi	s0,sp,16
    return (uint32_t)(FLASH->WPR);
    1f34:	400227b7          	lui	a5,0x40022
    1f38:	539c                	lw	a5,32(a5)
}
    1f3a:	853e                	mv	a0,a5
    1f3c:	4432                	lw	s0,12(sp)
    1f3e:	0141                	addi	sp,sp,16
    1f40:	8082                	ret

00001f42 <FLASH_GetReadOutProtectionStatus>:
 * @brief   Checks whether the FLASH Read Out Protection Status is set or not.
 *
 * @return  FLASH ReadOut Protection Status(SET or RESET)
 */
FlagStatus FLASH_GetReadOutProtectionStatus(void)
{
    1f42:	1101                	addi	sp,sp,-32
    1f44:	ce22                	sw	s0,28(sp)
    1f46:	1000                	addi	s0,sp,32
    FlagStatus readoutstatus = RESET;
    1f48:	fe042623          	sw	zero,-20(s0)
    if((FLASH->OBR & RDPRT_Mask) != (uint32_t)RESET)
    1f4c:	400227b7          	lui	a5,0x40022
    1f50:	4fdc                	lw	a5,28(a5)
    1f52:	8b89                	andi	a5,a5,2
    1f54:	c789                	beqz	a5,1f5e <FLASH_GetReadOutProtectionStatus+0x1c>
    {
        readoutstatus = SET;
    1f56:	4785                	li	a5,1
    1f58:	fef42623          	sw	a5,-20(s0)
    1f5c:	a019                	j	1f62 <FLASH_GetReadOutProtectionStatus+0x20>
    }
    else
    {
        readoutstatus = RESET;
    1f5e:	fe042623          	sw	zero,-20(s0)
    }
    return readoutstatus;
    1f62:	fec42783          	lw	a5,-20(s0)
}
    1f66:	853e                	mv	a0,a5
    1f68:	4472                	lw	s0,28(sp)
    1f6a:	6105                	addi	sp,sp,32
    1f6c:	8082                	ret

00001f6e <FLASH_ITConfig>:
 *          NewState - new state of the specified Flash interrupts(ENABLE or DISABLE).
 *
 * @return  FLASH Prefetch Buffer Status (SET or RESET).
 */
void FLASH_ITConfig(uint32_t FLASH_IT, FunctionalState NewState)
{
    1f6e:	1101                	addi	sp,sp,-32
    1f70:	ce22                	sw	s0,28(sp)
    1f72:	1000                	addi	s0,sp,32
    1f74:	fea42623          	sw	a0,-20(s0)
    1f78:	feb42423          	sw	a1,-24(s0)
    if(NewState != DISABLE)
    1f7c:	fe842783          	lw	a5,-24(s0)
    1f80:	cb99                	beqz	a5,1f96 <FLASH_ITConfig+0x28>
    {
        FLASH->CTLR |= FLASH_IT;
    1f82:	400227b7          	lui	a5,0x40022
    1f86:	4b94                	lw	a3,16(a5)
    1f88:	400227b7          	lui	a5,0x40022
    1f8c:	fec42703          	lw	a4,-20(s0)
    1f90:	8f55                	or	a4,a4,a3
    1f92:	cb98                	sw	a4,16(a5)
    }
    else
    {
        FLASH->CTLR &= ~(uint32_t)FLASH_IT;
    }
}
    1f94:	a821                	j	1fac <FLASH_ITConfig+0x3e>
        FLASH->CTLR &= ~(uint32_t)FLASH_IT;
    1f96:	400227b7          	lui	a5,0x40022
    1f9a:	4b94                	lw	a3,16(a5)
    1f9c:	fec42783          	lw	a5,-20(s0)
    1fa0:	fff7c713          	not	a4,a5
    1fa4:	400227b7          	lui	a5,0x40022
    1fa8:	8f75                	and	a4,a4,a3
    1faa:	cb98                	sw	a4,16(a5)
}
    1fac:	0001                	nop
    1fae:	4472                	lw	s0,28(sp)
    1fb0:	6105                	addi	sp,sp,32
    1fb2:	8082                	ret

00001fb4 <FLASH_GetFlagStatus>:
 *            FLASH_FLAG_OPTERR - FLASH Option Byte error flag
 *
 * @return  The new state of FLASH_FLAG (SET or RESET).
 */
FlagStatus FLASH_GetFlagStatus(uint32_t FLASH_FLAG)
{
    1fb4:	7179                	addi	sp,sp,-48
    1fb6:	d622                	sw	s0,44(sp)
    1fb8:	1800                	addi	s0,sp,48
    1fba:	fca42e23          	sw	a0,-36(s0)
    FlagStatus bitstatus = RESET;
    1fbe:	fe042623          	sw	zero,-20(s0)

    if(FLASH_FLAG == FLASH_FLAG_OPTERR)
    1fc2:	fdc42703          	lw	a4,-36(s0)
    1fc6:	4785                	li	a5,1
    1fc8:	00f71e63          	bne	a4,a5,1fe4 <FLASH_GetFlagStatus+0x30>
    {
        if((FLASH->OBR & FLASH_FLAG_OPTERR) != (uint32_t)RESET)
    1fcc:	400227b7          	lui	a5,0x40022
    1fd0:	4fdc                	lw	a5,28(a5)
    1fd2:	8b85                	andi	a5,a5,1
    1fd4:	c789                	beqz	a5,1fde <FLASH_GetFlagStatus+0x2a>
        {
            bitstatus = SET;
    1fd6:	4785                	li	a5,1
    1fd8:	fef42623          	sw	a5,-20(s0)
    1fdc:	a00d                	j	1ffe <FLASH_GetFlagStatus+0x4a>
        }
        else
        {
            bitstatus = RESET;
    1fde:	fe042623          	sw	zero,-20(s0)
    1fe2:	a831                	j	1ffe <FLASH_GetFlagStatus+0x4a>
        }
    }
    else
    {
        if((FLASH->STATR & FLASH_FLAG) != (uint32_t)RESET)
    1fe4:	400227b7          	lui	a5,0x40022
    1fe8:	47d8                	lw	a4,12(a5)
    1fea:	fdc42783          	lw	a5,-36(s0)
    1fee:	8ff9                	and	a5,a5,a4
    1ff0:	c789                	beqz	a5,1ffa <FLASH_GetFlagStatus+0x46>
        {
            bitstatus = SET;
    1ff2:	4785                	li	a5,1
    1ff4:	fef42623          	sw	a5,-20(s0)
    1ff8:	a019                	j	1ffe <FLASH_GetFlagStatus+0x4a>
        }
        else
        {
            bitstatus = RESET;
    1ffa:	fe042623          	sw	zero,-20(s0)
        }
    }
    return bitstatus;
    1ffe:	fec42783          	lw	a5,-20(s0)
}
    2002:	853e                	mv	a0,a5
    2004:	5432                	lw	s0,44(sp)
    2006:	6145                	addi	sp,sp,48
    2008:	8082                	ret

0000200a <FLASH_ClearFlag>:
 *            FLASH_FLAG_EOP - FLASH End of Operation flag
 *
 * @return  none
 */
void FLASH_ClearFlag(uint32_t FLASH_FLAG)
{
    200a:	1101                	addi	sp,sp,-32
    200c:	ce22                	sw	s0,28(sp)
    200e:	1000                	addi	s0,sp,32
    2010:	fea42623          	sw	a0,-20(s0)
    FLASH->STATR = FLASH_FLAG;
    2014:	400227b7          	lui	a5,0x40022
    2018:	fec42703          	lw	a4,-20(s0)
    201c:	c7d8                	sw	a4,12(a5)
}
    201e:	0001                	nop
    2020:	4472                	lw	s0,28(sp)
    2022:	6105                	addi	sp,sp,32
    2024:	8082                	ret

00002026 <FLASH_GetStatus>:
 *
 * @return  FLASH Status - The returned value can be: FLASH_BUSY, FLASH_ERROR_PG,
 *        FLASH_ERROR_WRP or FLASH_COMPLETE.
 */
FLASH_Status FLASH_GetStatus(void)
{
    2026:	1101                	addi	sp,sp,-32
    2028:	ce22                	sw	s0,28(sp)
    202a:	1000                	addi	s0,sp,32
    FLASH_Status flashstatus = FLASH_COMPLETE;
    202c:	4791                	li	a5,4
    202e:	fef42623          	sw	a5,-20(s0)

    if((FLASH->STATR & FLASH_FLAG_BSY) == FLASH_FLAG_BSY)
    2032:	400227b7          	lui	a5,0x40022
    2036:	47dc                	lw	a5,12(a5)
    2038:	0017f713          	andi	a4,a5,1
    203c:	4785                	li	a5,1
    203e:	00f71663          	bne	a4,a5,204a <FLASH_GetStatus+0x24>
    {
        flashstatus = FLASH_BUSY;
    2042:	4785                	li	a5,1
    2044:	fef42623          	sw	a5,-20(s0)
    2048:	a829                	j	2062 <FLASH_GetStatus+0x3c>
    }
    else
    {
        if((FLASH->STATR & FLASH_FLAG_WRPRTERR) != 0)
    204a:	400227b7          	lui	a5,0x40022
    204e:	47dc                	lw	a5,12(a5)
    2050:	8bc1                	andi	a5,a5,16
    2052:	c789                	beqz	a5,205c <FLASH_GetStatus+0x36>
        {
            flashstatus = FLASH_ERROR_WRP;
    2054:	478d                	li	a5,3
    2056:	fef42623          	sw	a5,-20(s0)
    205a:	a021                	j	2062 <FLASH_GetStatus+0x3c>
        }
        else
        {
            flashstatus = FLASH_COMPLETE;
    205c:	4791                	li	a5,4
    205e:	fef42623          	sw	a5,-20(s0)
        }
    }
    return flashstatus;
    2062:	fec42783          	lw	a5,-20(s0)
}
    2066:	853e                	mv	a0,a5
    2068:	4472                	lw	s0,28(sp)
    206a:	6105                	addi	sp,sp,32
    206c:	8082                	ret

0000206e <FLASH_GetBank1Status>:
 *
 * @return  FLASH Status - The returned value can be: FLASH_BUSY, FLASH_ERROR_PG,
 *        FLASH_ERROR_WRP or FLASH_COMPLETE.
 */
FLASH_Status FLASH_GetBank1Status(void)
{
    206e:	1101                	addi	sp,sp,-32
    2070:	ce22                	sw	s0,28(sp)
    2072:	1000                	addi	s0,sp,32
    FLASH_Status flashstatus = FLASH_COMPLETE;
    2074:	4791                	li	a5,4
    2076:	fef42623          	sw	a5,-20(s0)

    if((FLASH->STATR & FLASH_FLAG_BANK1_BSY) == FLASH_FLAG_BSY)
    207a:	400227b7          	lui	a5,0x40022
    207e:	47dc                	lw	a5,12(a5)
    2080:	0017f713          	andi	a4,a5,1
    2084:	4785                	li	a5,1
    2086:	00f71663          	bne	a4,a5,2092 <FLASH_GetBank1Status+0x24>
    {
        flashstatus = FLASH_BUSY;
    208a:	4785                	li	a5,1
    208c:	fef42623          	sw	a5,-20(s0)
    2090:	a829                	j	20aa <FLASH_GetBank1Status+0x3c>
    }
    else
    {
        if((FLASH->STATR & FLASH_FLAG_BANK1_WRPRTERR) != 0)
    2092:	400227b7          	lui	a5,0x40022
    2096:	47dc                	lw	a5,12(a5)
    2098:	8bc1                	andi	a5,a5,16
    209a:	c789                	beqz	a5,20a4 <FLASH_GetBank1Status+0x36>
        {
            flashstatus = FLASH_ERROR_WRP;
    209c:	478d                	li	a5,3
    209e:	fef42623          	sw	a5,-20(s0)
    20a2:	a021                	j	20aa <FLASH_GetBank1Status+0x3c>
        }
        else
        {
            flashstatus = FLASH_COMPLETE;
    20a4:	4791                	li	a5,4
    20a6:	fef42623          	sw	a5,-20(s0)
        }
    }
    return flashstatus;
    20aa:	fec42783          	lw	a5,-20(s0)
}
    20ae:	853e                	mv	a0,a5
    20b0:	4472                	lw	s0,28(sp)
    20b2:	6105                	addi	sp,sp,32
    20b4:	8082                	ret

000020b6 <FLASH_WaitForLastOperation>:
 *
 * @return  FLASH Status - The returned value can be: FLASH_BUSY, FLASH_ERROR_PG,
 *        FLASH_ERROR_WRP or FLASH_COMPLETE.
 */
FLASH_Status FLASH_WaitForLastOperation(uint32_t Timeout)
{
    20b6:	7179                	addi	sp,sp,-48
    20b8:	d606                	sw	ra,44(sp)
    20ba:	d422                	sw	s0,40(sp)
    20bc:	1800                	addi	s0,sp,48
    20be:	fca42e23          	sw	a0,-36(s0)
    FLASH_Status status = FLASH_COMPLETE;
    20c2:	4791                	li	a5,4
    20c4:	fef42623          	sw	a5,-20(s0)

    status = FLASH_GetBank1Status();
    20c8:	375d                	jal	206e <FLASH_GetBank1Status>
    20ca:	fea42623          	sw	a0,-20(s0)
    while((status == FLASH_BUSY) && (Timeout != 0x00))
    20ce:	a809                	j	20e0 <FLASH_WaitForLastOperation+0x2a>
    {
        status = FLASH_GetBank1Status();
    20d0:	3f79                	jal	206e <FLASH_GetBank1Status>
    20d2:	fea42623          	sw	a0,-20(s0)
        Timeout--;
    20d6:	fdc42783          	lw	a5,-36(s0)
    20da:	17fd                	addi	a5,a5,-1
    20dc:	fcf42e23          	sw	a5,-36(s0)
    while((status == FLASH_BUSY) && (Timeout != 0x00))
    20e0:	fec42703          	lw	a4,-20(s0)
    20e4:	4785                	li	a5,1
    20e6:	00f71563          	bne	a4,a5,20f0 <FLASH_WaitForLastOperation+0x3a>
    20ea:	fdc42783          	lw	a5,-36(s0)
    20ee:	f3ed                	bnez	a5,20d0 <FLASH_WaitForLastOperation+0x1a>
    }
    if(Timeout == 0x00)
    20f0:	fdc42783          	lw	a5,-36(s0)
    20f4:	e781                	bnez	a5,20fc <FLASH_WaitForLastOperation+0x46>
    {
        status = FLASH_TIMEOUT;
    20f6:	4795                	li	a5,5
    20f8:	fef42623          	sw	a5,-20(s0)
    }
    return status;
    20fc:	fec42783          	lw	a5,-20(s0)
}
    2100:	853e                	mv	a0,a5
    2102:	50b2                	lw	ra,44(sp)
    2104:	5422                	lw	s0,40(sp)
    2106:	6145                	addi	sp,sp,48
    2108:	8082                	ret

0000210a <FLASH_WaitForLastBank1Operation>:
 *
 * @return  FLASH Status - The returned value can be: FLASH_BUSY, FLASH_ERROR_PG,
 *        FLASH_ERROR_WRP or FLASH_COMPLETE.
 */
FLASH_Status FLASH_WaitForLastBank1Operation(uint32_t Timeout)
{
    210a:	7179                	addi	sp,sp,-48
    210c:	d606                	sw	ra,44(sp)
    210e:	d422                	sw	s0,40(sp)
    2110:	1800                	addi	s0,sp,48
    2112:	fca42e23          	sw	a0,-36(s0)
    FLASH_Status status = FLASH_COMPLETE;
    2116:	4791                	li	a5,4
    2118:	fef42623          	sw	a5,-20(s0)

    status = FLASH_GetBank1Status();
    211c:	3f89                	jal	206e <FLASH_GetBank1Status>
    211e:	fea42623          	sw	a0,-20(s0)
    while((status == FLASH_FLAG_BANK1_BSY) && (Timeout != 0x00))
    2122:	a809                	j	2134 <FLASH_WaitForLastBank1Operation+0x2a>
    {
        status = FLASH_GetBank1Status();
    2124:	37a9                	jal	206e <FLASH_GetBank1Status>
    2126:	fea42623          	sw	a0,-20(s0)
        Timeout--;
    212a:	fdc42783          	lw	a5,-36(s0)
    212e:	17fd                	addi	a5,a5,-1
    2130:	fcf42e23          	sw	a5,-36(s0)
    while((status == FLASH_FLAG_BANK1_BSY) && (Timeout != 0x00))
    2134:	fec42703          	lw	a4,-20(s0)
    2138:	4785                	li	a5,1
    213a:	00f71563          	bne	a4,a5,2144 <FLASH_WaitForLastBank1Operation+0x3a>
    213e:	fdc42783          	lw	a5,-36(s0)
    2142:	f3ed                	bnez	a5,2124 <FLASH_WaitForLastBank1Operation+0x1a>
    }
    if(Timeout == 0x00)
    2144:	fdc42783          	lw	a5,-36(s0)
    2148:	e781                	bnez	a5,2150 <FLASH_WaitForLastBank1Operation+0x46>
    {
        status = FLASH_TIMEOUT;
    214a:	4795                	li	a5,5
    214c:	fef42623          	sw	a5,-20(s0)
    }
    return status;
    2150:	fec42783          	lw	a5,-20(s0)
}
    2154:	853e                	mv	a0,a5
    2156:	50b2                	lw	ra,44(sp)
    2158:	5422                	lw	s0,40(sp)
    215a:	6145                	addi	sp,sp,48
    215c:	8082                	ret

0000215e <FLASH_Unlock_Fast>:
 * @brief   Unlocks the Fast Program Erase Mode.
 *
 * @return  none
 */
void FLASH_Unlock_Fast(void)
{
    215e:	1141                	addi	sp,sp,-16
    2160:	c622                	sw	s0,12(sp)
    2162:	0800                	addi	s0,sp,16
    /* Authorize the FPEC of Bank1 Access */
    FLASH->KEYR = FLASH_KEY1;
    2164:	400227b7          	lui	a5,0x40022
    2168:	45670737          	lui	a4,0x45670
    216c:	12370713          	addi	a4,a4,291 # 45670123 <_eusrstack+0x2566c123>
    2170:	c3d8                	sw	a4,4(a5)
    FLASH->KEYR = FLASH_KEY2;
    2172:	400227b7          	lui	a5,0x40022
    2176:	cdef9737          	lui	a4,0xcdef9
    217a:	9ab70713          	addi	a4,a4,-1621 # cdef89ab <_eusrstack+0xadef49ab>
    217e:	c3d8                	sw	a4,4(a5)

    /* Fast program mode unlock */
    FLASH->MODEKEYR = FLASH_KEY1;
    2180:	400227b7          	lui	a5,0x40022
    2184:	45670737          	lui	a4,0x45670
    2188:	12370713          	addi	a4,a4,291 # 45670123 <_eusrstack+0x2566c123>
    218c:	d3d8                	sw	a4,36(a5)
    FLASH->MODEKEYR = FLASH_KEY2;
    218e:	400227b7          	lui	a5,0x40022
    2192:	cdef9737          	lui	a4,0xcdef9
    2196:	9ab70713          	addi	a4,a4,-1621 # cdef89ab <_eusrstack+0xadef49ab>
    219a:	d3d8                	sw	a4,36(a5)
}
    219c:	0001                	nop
    219e:	4432                	lw	s0,12(sp)
    21a0:	0141                	addi	sp,sp,16
    21a2:	8082                	ret

000021a4 <FLASH_Lock_Fast>:
 * @brief   Locks the Fast Program Erase Mode.
 *
 * @return  none
 */
void FLASH_Lock_Fast(void)
{
    21a4:	1141                	addi	sp,sp,-16
    21a6:	c622                	sw	s0,12(sp)
    21a8:	0800                	addi	s0,sp,16
    FLASH->CTLR |= CR_FLOCK_Set;
    21aa:	400227b7          	lui	a5,0x40022
    21ae:	4b94                	lw	a3,16(a5)
    21b0:	400227b7          	lui	a5,0x40022
    21b4:	6721                	lui	a4,0x8
    21b6:	8f55                	or	a4,a4,a3
    21b8:	cb98                	sw	a4,16(a5)
}
    21ba:	0001                	nop
    21bc:	4432                	lw	s0,12(sp)
    21be:	0141                	addi	sp,sp,16
    21c0:	8082                	ret

000021c2 <FLASH_BufReset>:
 * @brief   Flash Buffer reset.
 *
 * @return  none
 */
void FLASH_BufReset(void)
{
    21c2:	1141                	addi	sp,sp,-16
    21c4:	c622                	sw	s0,12(sp)
    21c6:	0800                	addi	s0,sp,16
    FLASH->CTLR |= CR_PAGE_PG;
    21c8:	400227b7          	lui	a5,0x40022
    21cc:	4b94                	lw	a3,16(a5)
    21ce:	400227b7          	lui	a5,0x40022
    21d2:	6741                	lui	a4,0x10
    21d4:	8f55                	or	a4,a4,a3
    21d6:	cb98                	sw	a4,16(a5)
    FLASH->CTLR |= CR_BUF_RST;
    21d8:	400227b7          	lui	a5,0x40022
    21dc:	4b94                	lw	a3,16(a5)
    21de:	400227b7          	lui	a5,0x40022
    21e2:	00080737          	lui	a4,0x80
    21e6:	8f55                	or	a4,a4,a3
    21e8:	cb98                	sw	a4,16(a5)
    while(FLASH->STATR & SR_BSY)
    21ea:	0001                	nop
    21ec:	400227b7          	lui	a5,0x40022
    21f0:	47dc                	lw	a5,12(a5)
    21f2:	8b85                	andi	a5,a5,1
    21f4:	ffe5                	bnez	a5,21ec <FLASH_BufReset+0x2a>
        ;
    FLASH->CTLR &= ~CR_PAGE_PG;
    21f6:	400227b7          	lui	a5,0x40022
    21fa:	4b94                	lw	a3,16(a5)
    21fc:	400227b7          	lui	a5,0x40022
    2200:	7741                	lui	a4,0xffff0
    2202:	177d                	addi	a4,a4,-1
    2204:	8f75                	and	a4,a4,a3
    2206:	cb98                	sw	a4,16(a5)
}
    2208:	0001                	nop
    220a:	4432                	lw	s0,12(sp)
    220c:	0141                	addi	sp,sp,16
    220e:	8082                	ret

00002210 <FLASH_BufLoad>:
 *          Data0 - specifies the data0 to be programmed.
 *
 * @return  none
 */
void FLASH_BufLoad(uint32_t Address, uint32_t Data0)
{
    2210:	1101                	addi	sp,sp,-32
    2212:	ce22                	sw	s0,28(sp)
    2214:	1000                	addi	s0,sp,32
    2216:	fea42623          	sw	a0,-20(s0)
    221a:	feb42423          	sw	a1,-24(s0)
    FLASH->CTLR |= CR_PAGE_PG;
    221e:	400227b7          	lui	a5,0x40022
    2222:	4b94                	lw	a3,16(a5)
    2224:	400227b7          	lui	a5,0x40022
    2228:	6741                	lui	a4,0x10
    222a:	8f55                	or	a4,a4,a3
    222c:	cb98                	sw	a4,16(a5)
    *(__IO uint32_t *)(Address) = Data0;
    222e:	fec42783          	lw	a5,-20(s0)
    2232:	fe842703          	lw	a4,-24(s0)
    2236:	c398                	sw	a4,0(a5)
    FLASH->CTLR |= CR_BUF_LOAD;
    2238:	400227b7          	lui	a5,0x40022
    223c:	4b94                	lw	a3,16(a5)
    223e:	400227b7          	lui	a5,0x40022
    2242:	00040737          	lui	a4,0x40
    2246:	8f55                	or	a4,a4,a3
    2248:	cb98                	sw	a4,16(a5)
    while(FLASH->STATR & SR_BSY)
    224a:	0001                	nop
    224c:	400227b7          	lui	a5,0x40022
    2250:	47dc                	lw	a5,12(a5)
    2252:	8b85                	andi	a5,a5,1
    2254:	ffe5                	bnez	a5,224c <FLASH_BufLoad+0x3c>
        ;
    FLASH->CTLR &= ~CR_PAGE_PG;
    2256:	400227b7          	lui	a5,0x40022
    225a:	4b94                	lw	a3,16(a5)
    225c:	400227b7          	lui	a5,0x40022
    2260:	7741                	lui	a4,0xffff0
    2262:	177d                	addi	a4,a4,-1
    2264:	8f75                	and	a4,a4,a3
    2266:	cb98                	sw	a4,16(a5)
}
    2268:	0001                	nop
    226a:	4472                	lw	s0,28(sp)
    226c:	6105                	addi	sp,sp,32
    226e:	8082                	ret

00002270 <FLASH_ErasePage_Fast>:
 * @param   Page_Address - The page address to be erased.
 *
 * @return  none
 */
void FLASH_ErasePage_Fast(uint32_t Page_Address)
{
    2270:	1101                	addi	sp,sp,-32
    2272:	ce22                	sw	s0,28(sp)
    2274:	1000                	addi	s0,sp,32
    2276:	fea42623          	sw	a0,-20(s0)
    FLASH->CTLR |= CR_PAGE_ER;
    227a:	400227b7          	lui	a5,0x40022
    227e:	4b94                	lw	a3,16(a5)
    2280:	400227b7          	lui	a5,0x40022
    2284:	00020737          	lui	a4,0x20
    2288:	8f55                	or	a4,a4,a3
    228a:	cb98                	sw	a4,16(a5)
    FLASH->ADDR = Page_Address;
    228c:	400227b7          	lui	a5,0x40022
    2290:	fec42703          	lw	a4,-20(s0)
    2294:	cbd8                	sw	a4,20(a5)
    FLASH->CTLR |= CR_STRT_Set;
    2296:	400227b7          	lui	a5,0x40022
    229a:	4b98                	lw	a4,16(a5)
    229c:	400227b7          	lui	a5,0x40022
    22a0:	04076713          	ori	a4,a4,64
    22a4:	cb98                	sw	a4,16(a5)
    while(FLASH->STATR & SR_BSY)
    22a6:	0001                	nop
    22a8:	400227b7          	lui	a5,0x40022
    22ac:	47dc                	lw	a5,12(a5)
    22ae:	8b85                	andi	a5,a5,1
    22b0:	ffe5                	bnez	a5,22a8 <FLASH_ErasePage_Fast+0x38>
        ;
    FLASH->CTLR &= ~CR_PAGE_ER;
    22b2:	400227b7          	lui	a5,0x40022
    22b6:	4b94                	lw	a3,16(a5)
    22b8:	400227b7          	lui	a5,0x40022
    22bc:	7701                	lui	a4,0xfffe0
    22be:	177d                	addi	a4,a4,-1
    22c0:	8f75                	and	a4,a4,a3
    22c2:	cb98                	sw	a4,16(a5)
}
    22c4:	0001                	nop
    22c6:	4472                	lw	s0,28(sp)
    22c8:	6105                	addi	sp,sp,32
    22ca:	8082                	ret

000022cc <FLASH_EraseBlock_32K_Fast>:
 * @param   Block_Address - The block address to be erased.
 *
 * @return  none
 */
void FLASH_EraseBlock_32K_Fast(uint32_t Block_Address)
{
    22cc:	1101                	addi	sp,sp,-32
    22ce:	ce22                	sw	s0,28(sp)
    22d0:	1000                	addi	s0,sp,32
    22d2:	fea42623          	sw	a0,-20(s0)
    Block_Address &= 0xFFFF8000;
    22d6:	fec42703          	lw	a4,-20(s0)
    22da:	77e1                	lui	a5,0xffff8
    22dc:	8ff9                	and	a5,a5,a4
    22de:	fef42623          	sw	a5,-20(s0)

    FLASH->CTLR |= CR_BER32;
    22e2:	400227b7          	lui	a5,0x40022
    22e6:	4b94                	lw	a3,16(a5)
    22e8:	400227b7          	lui	a5,0x40022
    22ec:	00800737          	lui	a4,0x800
    22f0:	8f55                	or	a4,a4,a3
    22f2:	cb98                	sw	a4,16(a5)
    FLASH->ADDR = Block_Address;
    22f4:	400227b7          	lui	a5,0x40022
    22f8:	fec42703          	lw	a4,-20(s0)
    22fc:	cbd8                	sw	a4,20(a5)
    FLASH->CTLR |= CR_STRT_Set;
    22fe:	400227b7          	lui	a5,0x40022
    2302:	4b98                	lw	a4,16(a5)
    2304:	400227b7          	lui	a5,0x40022
    2308:	04076713          	ori	a4,a4,64
    230c:	cb98                	sw	a4,16(a5)
    while(FLASH->STATR & SR_BSY)
    230e:	0001                	nop
    2310:	400227b7          	lui	a5,0x40022
    2314:	47dc                	lw	a5,12(a5)
    2316:	8b85                	andi	a5,a5,1
    2318:	ffe5                	bnez	a5,2310 <FLASH_EraseBlock_32K_Fast+0x44>
        ;
    FLASH->CTLR &= ~CR_BER32;
    231a:	400227b7          	lui	a5,0x40022
    231e:	4b94                	lw	a3,16(a5)
    2320:	400227b7          	lui	a5,0x40022
    2324:	ff800737          	lui	a4,0xff800
    2328:	177d                	addi	a4,a4,-1
    232a:	8f75                	and	a4,a4,a3
    232c:	cb98                	sw	a4,16(a5)
}
    232e:	0001                	nop
    2330:	4472                	lw	s0,28(sp)
    2332:	6105                	addi	sp,sp,32
    2334:	8082                	ret

00002336 <FLASH_ProgramPage_Fast>:
 * @param   Page_Address - The page address to be programed.
 *
 * @return  none
 */
void FLASH_ProgramPage_Fast(uint32_t Page_Address)
{
    2336:	1101                	addi	sp,sp,-32
    2338:	ce22                	sw	s0,28(sp)
    233a:	1000                	addi	s0,sp,32
    233c:	fea42623          	sw	a0,-20(s0)
    FLASH->CTLR |= CR_PAGE_PG;
    2340:	400227b7          	lui	a5,0x40022
    2344:	4b94                	lw	a3,16(a5)
    2346:	400227b7          	lui	a5,0x40022
    234a:	6741                	lui	a4,0x10
    234c:	8f55                	or	a4,a4,a3
    234e:	cb98                	sw	a4,16(a5)
    FLASH->ADDR = Page_Address;
    2350:	400227b7          	lui	a5,0x40022
    2354:	fec42703          	lw	a4,-20(s0)
    2358:	cbd8                	sw	a4,20(a5)
    FLASH->CTLR |= CR_STRT_Set;
    235a:	400227b7          	lui	a5,0x40022
    235e:	4b98                	lw	a4,16(a5)
    2360:	400227b7          	lui	a5,0x40022
    2364:	04076713          	ori	a4,a4,64
    2368:	cb98                	sw	a4,16(a5)
    while(FLASH->STATR & SR_BSY)
    236a:	0001                	nop
    236c:	400227b7          	lui	a5,0x40022
    2370:	47dc                	lw	a5,12(a5)
    2372:	8b85                	andi	a5,a5,1
    2374:	ffe5                	bnez	a5,236c <FLASH_ProgramPage_Fast+0x36>
        ;
    FLASH->CTLR &= ~CR_PAGE_PG;
    2376:	400227b7          	lui	a5,0x40022
    237a:	4b94                	lw	a3,16(a5)
    237c:	400227b7          	lui	a5,0x40022
    2380:	7741                	lui	a4,0xffff0
    2382:	177d                	addi	a4,a4,-1
    2384:	8f75                	and	a4,a4,a3
    2386:	cb98                	sw	a4,16(a5)
}
    2388:	0001                	nop
    238a:	4472                	lw	s0,28(sp)
    238c:	6105                	addi	sp,sp,32
    238e:	8082                	ret

00002390 <SystemReset_StartMode>:
 *            Start_Mode_USER - USER start after system reset
 *            Start_Mode_BOOT - Boot start after system reset
 * @return  none
 */
void SystemReset_StartMode(uint32_t Mode)
{
    2390:	1101                	addi	sp,sp,-32
    2392:	ce06                	sw	ra,28(sp)
    2394:	cc22                	sw	s0,24(sp)
    2396:	1000                	addi	s0,sp,32
    2398:	fea42623          	sw	a0,-20(s0)
    FLASH_Unlock();
    239c:	eb8ff0ef          	jal	ra,1a54 <FLASH_Unlock>

    FLASH->BOOT_MODEKEYR = FLASH_KEY1;
    23a0:	400227b7          	lui	a5,0x40022
    23a4:	45670737          	lui	a4,0x45670
    23a8:	12370713          	addi	a4,a4,291 # 45670123 <_eusrstack+0x2566c123>
    23ac:	d798                	sw	a4,40(a5)
    FLASH->BOOT_MODEKEYR = FLASH_KEY2;
    23ae:	400227b7          	lui	a5,0x40022
    23b2:	cdef9737          	lui	a4,0xcdef9
    23b6:	9ab70713          	addi	a4,a4,-1621 # cdef89ab <_eusrstack+0xadef49ab>
    23ba:	d798                	sw	a4,40(a5)

    FLASH->STATR &= ~(1<<14);
    23bc:	400227b7          	lui	a5,0x40022
    23c0:	47d4                	lw	a3,12(a5)
    23c2:	400227b7          	lui	a5,0x40022
    23c6:	7771                	lui	a4,0xffffc
    23c8:	177d                	addi	a4,a4,-1
    23ca:	8f75                	and	a4,a4,a3
    23cc:	c7d8                	sw	a4,12(a5)
    if(Mode == Start_Mode_BOOT){
    23ce:	fec42703          	lw	a4,-20(s0)
    23d2:	6791                	lui	a5,0x4
    23d4:	00f71a63          	bne	a4,a5,23e8 <SystemReset_StartMode+0x58>
        FLASH->STATR |= (1<<14);
    23d8:	400227b7          	lui	a5,0x40022
    23dc:	47d4                	lw	a3,12(a5)
    23de:	400227b7          	lui	a5,0x40022
    23e2:	6711                	lui	a4,0x4
    23e4:	8f55                	or	a4,a4,a3
    23e6:	c7d8                	sw	a4,12(a5)
    }

    FLASH_Lock();
    23e8:	e96ff0ef          	jal	ra,1a7e <FLASH_Lock>
}
    23ec:	0001                	nop
    23ee:	40f2                	lw	ra,28(sp)
    23f0:	4462                	lw	s0,24(sp)
    23f2:	6105                	addi	sp,sp,32
    23f4:	8082                	ret

000023f6 <GPIO_DeInit>:
 * @param   GPIOx - where x can be (A..C) to select the GPIO peripheral.
 *
 * @return  none
 */
void GPIO_DeInit(GPIO_TypeDef *GPIOx)
{
    23f6:	1101                	addi	sp,sp,-32
    23f8:	ce06                	sw	ra,28(sp)
    23fa:	cc22                	sw	s0,24(sp)
    23fc:	1000                	addi	s0,sp,32
    23fe:	fea42623          	sw	a0,-20(s0)
    if(GPIOx == GPIOA)
    2402:	fec42703          	lw	a4,-20(s0)
    2406:	400117b7          	lui	a5,0x40011
    240a:	80078793          	addi	a5,a5,-2048 # 40010800 <_eusrstack+0x2000c800>
    240e:	00f71b63          	bne	a4,a5,2424 <GPIO_DeInit+0x2e>
    {
        RCC_APB2PeriphResetCmd(RCC_APB2Periph_GPIOA, ENABLE);
    2412:	4585                	li	a1,1
    2414:	4511                	li	a0,4
    2416:	774020ef          	jal	ra,4b8a <RCC_APB2PeriphResetCmd>
        RCC_APB2PeriphResetCmd(RCC_APB2Periph_GPIOA, DISABLE);
    241a:	4581                	li	a1,0
    241c:	4511                	li	a0,4
    241e:	76c020ef          	jal	ra,4b8a <RCC_APB2PeriphResetCmd>
    else if(GPIOx == GPIOC)
    {
        RCC_APB2PeriphResetCmd(RCC_APB2Periph_GPIOC, ENABLE);
        RCC_APB2PeriphResetCmd(RCC_APB2Periph_GPIOC, DISABLE);
    }
}
    2422:	a081                	j	2462 <GPIO_DeInit+0x6c>
    else if(GPIOx == GPIOB)
    2424:	fec42703          	lw	a4,-20(s0)
    2428:	400117b7          	lui	a5,0x40011
    242c:	c0078793          	addi	a5,a5,-1024 # 40010c00 <_eusrstack+0x2000cc00>
    2430:	00f71b63          	bne	a4,a5,2446 <GPIO_DeInit+0x50>
        RCC_APB2PeriphResetCmd(RCC_APB2Periph_GPIOB, ENABLE);
    2434:	4585                	li	a1,1
    2436:	4521                	li	a0,8
    2438:	752020ef          	jal	ra,4b8a <RCC_APB2PeriphResetCmd>
        RCC_APB2PeriphResetCmd(RCC_APB2Periph_GPIOB, DISABLE);
    243c:	4581                	li	a1,0
    243e:	4521                	li	a0,8
    2440:	74a020ef          	jal	ra,4b8a <RCC_APB2PeriphResetCmd>
}
    2444:	a839                	j	2462 <GPIO_DeInit+0x6c>
    else if(GPIOx == GPIOC)
    2446:	fec42703          	lw	a4,-20(s0)
    244a:	400117b7          	lui	a5,0x40011
    244e:	00f71a63          	bne	a4,a5,2462 <GPIO_DeInit+0x6c>
        RCC_APB2PeriphResetCmd(RCC_APB2Periph_GPIOC, ENABLE);
    2452:	4585                	li	a1,1
    2454:	4541                	li	a0,16
    2456:	734020ef          	jal	ra,4b8a <RCC_APB2PeriphResetCmd>
        RCC_APB2PeriphResetCmd(RCC_APB2Periph_GPIOC, DISABLE);
    245a:	4581                	li	a1,0
    245c:	4541                	li	a0,16
    245e:	72c020ef          	jal	ra,4b8a <RCC_APB2PeriphResetCmd>
}
    2462:	0001                	nop
    2464:	40f2                	lw	ra,28(sp)
    2466:	4462                	lw	s0,24(sp)
    2468:	6105                	addi	sp,sp,32
    246a:	8082                	ret

0000246c <GPIO_AFIODeInit>:
 *        and EXTI configuration) registers to their default reset values.
 *
 * @return  none
 */
void GPIO_AFIODeInit(void)
{
    246c:	1141                	addi	sp,sp,-16
    246e:	c606                	sw	ra,12(sp)
    2470:	c422                	sw	s0,8(sp)
    2472:	0800                	addi	s0,sp,16
    RCC_APB2PeriphResetCmd(RCC_APB2Periph_AFIO, ENABLE);
    2474:	4585                	li	a1,1
    2476:	4505                	li	a0,1
    2478:	712020ef          	jal	ra,4b8a <RCC_APB2PeriphResetCmd>
    RCC_APB2PeriphResetCmd(RCC_APB2Periph_AFIO, DISABLE);
    247c:	4581                	li	a1,0
    247e:	4505                	li	a0,1
    2480:	70a020ef          	jal	ra,4b8a <RCC_APB2PeriphResetCmd>
}
    2484:	0001                	nop
    2486:	40b2                	lw	ra,12(sp)
    2488:	4422                	lw	s0,8(sp)
    248a:	0141                	addi	sp,sp,16
    248c:	8082                	ret

0000248e <GPIO_Init>:
 *        contains the configuration information for the specified GPIO peripheral.
 *
 * @return  none
 */
void GPIO_Init(GPIO_TypeDef *GPIOx, GPIO_InitTypeDef *GPIO_InitStruct)
{
    248e:	7139                	addi	sp,sp,-64
    2490:	de22                	sw	s0,60(sp)
    2492:	0080                	addi	s0,sp,64
    2494:	fca42623          	sw	a0,-52(s0)
    2498:	fcb42423          	sw	a1,-56(s0)
    uint32_t currentmode = 0x00, currentpin = 0x00, pinpos = 0x00, pos = 0x00;
    249c:	fe042623          	sw	zero,-20(s0)
    24a0:	fe042023          	sw	zero,-32(s0)
    24a4:	fe042423          	sw	zero,-24(s0)
    24a8:	fc042e23          	sw	zero,-36(s0)
    uint32_t tmpreg = 0x00, pinmask = 0x00;
    24ac:	fe042223          	sw	zero,-28(s0)
    24b0:	fc042c23          	sw	zero,-40(s0)

    currentmode = ((uint32_t)GPIO_InitStruct->GPIO_Mode) & ((uint32_t)0x0F);
    24b4:	fc842783          	lw	a5,-56(s0)
    24b8:	479c                	lw	a5,8(a5)
    24ba:	8bbd                	andi	a5,a5,15
    24bc:	fef42623          	sw	a5,-20(s0)

    if((((uint32_t)GPIO_InitStruct->GPIO_Mode) & ((uint32_t)0x10)) != 0x00)
    24c0:	fc842783          	lw	a5,-56(s0)
    24c4:	479c                	lw	a5,8(a5)
    24c6:	8bc1                	andi	a5,a5,16
    24c8:	cb89                	beqz	a5,24da <GPIO_Init+0x4c>
    {
        currentmode |= (uint32_t)GPIO_InitStruct->GPIO_Speed;
    24ca:	fc842783          	lw	a5,-56(s0)
    24ce:	43dc                	lw	a5,4(a5)
    24d0:	fec42703          	lw	a4,-20(s0)
    24d4:	8fd9                	or	a5,a5,a4
    24d6:	fef42623          	sw	a5,-20(s0)
    }

    if(((uint32_t)GPIO_InitStruct->GPIO_Pin & ((uint32_t)0x0000FF)) != 0x00)
    24da:	fc842783          	lw	a5,-56(s0)
    24de:	439c                	lw	a5,0(a5)
    24e0:	0ff7f793          	andi	a5,a5,255
    24e4:	cfe1                	beqz	a5,25bc <GPIO_Init+0x12e>
    {
        tmpreg = GPIOx->CFGLR;
    24e6:	fcc42783          	lw	a5,-52(s0)
    24ea:	439c                	lw	a5,0(a5)
    24ec:	fef42223          	sw	a5,-28(s0)

        for(pinpos = 0x00; pinpos < 0x08; pinpos++)
    24f0:	fe042423          	sw	zero,-24(s0)
    24f4:	a855                	j	25a8 <GPIO_Init+0x11a>
        {
            pos = ((uint32_t)0x01) << pinpos;
    24f6:	fe842783          	lw	a5,-24(s0)
    24fa:	4705                	li	a4,1
    24fc:	00f717b3          	sll	a5,a4,a5
    2500:	fcf42e23          	sw	a5,-36(s0)
            currentpin = (GPIO_InitStruct->GPIO_Pin) & pos;
    2504:	fc842783          	lw	a5,-56(s0)
    2508:	439c                	lw	a5,0(a5)
    250a:	fdc42703          	lw	a4,-36(s0)
    250e:	8ff9                	and	a5,a5,a4
    2510:	fef42023          	sw	a5,-32(s0)

            if(currentpin == pos)
    2514:	fe042703          	lw	a4,-32(s0)
    2518:	fdc42783          	lw	a5,-36(s0)
    251c:	08f71163          	bne	a4,a5,259e <GPIO_Init+0x110>
            {
                pos = pinpos << 2;
    2520:	fe842783          	lw	a5,-24(s0)
    2524:	078a                	slli	a5,a5,0x2
    2526:	fcf42e23          	sw	a5,-36(s0)
                pinmask = ((uint32_t)0x0F) << pos;
    252a:	fdc42783          	lw	a5,-36(s0)
    252e:	473d                	li	a4,15
    2530:	00f717b3          	sll	a5,a4,a5
    2534:	fcf42c23          	sw	a5,-40(s0)
                tmpreg &= ~pinmask;
    2538:	fd842783          	lw	a5,-40(s0)
    253c:	fff7c793          	not	a5,a5
    2540:	fe442703          	lw	a4,-28(s0)
    2544:	8ff9                	and	a5,a5,a4
    2546:	fef42223          	sw	a5,-28(s0)
                tmpreg |= (currentmode << pos);
    254a:	fdc42783          	lw	a5,-36(s0)
    254e:	fec42703          	lw	a4,-20(s0)
    2552:	00f717b3          	sll	a5,a4,a5
    2556:	fe442703          	lw	a4,-28(s0)
    255a:	8fd9                	or	a5,a5,a4
    255c:	fef42223          	sw	a5,-28(s0)

                if(GPIO_InitStruct->GPIO_Mode == GPIO_Mode_IPD)
    2560:	fc842783          	lw	a5,-56(s0)
    2564:	4798                	lw	a4,8(a5)
    2566:	02800793          	li	a5,40
    256a:	00f71b63          	bne	a4,a5,2580 <GPIO_Init+0xf2>
                {
                    GPIOx->BCR = (((uint32_t)0x01) << pinpos);
    256e:	fe842783          	lw	a5,-24(s0)
    2572:	4705                	li	a4,1
    2574:	00f71733          	sll	a4,a4,a5
    2578:	fcc42783          	lw	a5,-52(s0)
    257c:	cbd8                	sw	a4,20(a5)
    257e:	a005                	j	259e <GPIO_Init+0x110>
                }
                else
                {
                    if(GPIO_InitStruct->GPIO_Mode == GPIO_Mode_IPU)
    2580:	fc842783          	lw	a5,-56(s0)
    2584:	4798                	lw	a4,8(a5)
    2586:	04800793          	li	a5,72
    258a:	00f71a63          	bne	a4,a5,259e <GPIO_Init+0x110>
                    {
                        GPIOx->BSHR = (((uint32_t)0x01) << pinpos);
    258e:	fe842783          	lw	a5,-24(s0)
    2592:	4705                	li	a4,1
    2594:	00f71733          	sll	a4,a4,a5
    2598:	fcc42783          	lw	a5,-52(s0)
    259c:	cb98                	sw	a4,16(a5)
        for(pinpos = 0x00; pinpos < 0x08; pinpos++)
    259e:	fe842783          	lw	a5,-24(s0)
    25a2:	0785                	addi	a5,a5,1
    25a4:	fef42423          	sw	a5,-24(s0)
    25a8:	fe842703          	lw	a4,-24(s0)
    25ac:	479d                	li	a5,7
    25ae:	f4e7f4e3          	bgeu	a5,a4,24f6 <GPIO_Init+0x68>
                    }
                }
            }
        }
        GPIOx->CFGLR = tmpreg;
    25b2:	fcc42783          	lw	a5,-52(s0)
    25b6:	fe442703          	lw	a4,-28(s0)
    25ba:	c398                	sw	a4,0(a5)
    }

    if(((uint32_t)GPIO_InitStruct->GPIO_Pin & ((uint32_t)0x00FF00)) != 0x00)
    25bc:	fc842783          	lw	a5,-56(s0)
    25c0:	4398                	lw	a4,0(a5)
    25c2:	67c1                	lui	a5,0x10
    25c4:	f0078793          	addi	a5,a5,-256 # ff00 <_data_lma+0xcf4>
    25c8:	8ff9                	and	a5,a5,a4
    25ca:	16078663          	beqz	a5,2736 <GPIO_Init+0x2a8>
    {
        if(GPIOx == GPIOA)
    25ce:	fcc42703          	lw	a4,-52(s0)
    25d2:	400117b7          	lui	a5,0x40011
    25d6:	80078793          	addi	a5,a5,-2048 # 40010800 <_eusrstack+0x2000c800>
    25da:	00f71963          	bne	a4,a5,25ec <GPIO_Init+0x15e>
        {
            tmpreg = CFGHR_tmpA;
    25de:	200007b7          	lui	a5,0x20000
    25e2:	0247a783          	lw	a5,36(a5) # 20000024 <CFGHR_tmpA>
    25e6:	fef42223          	sw	a5,-28(s0)
    25ea:	a805                	j	261a <GPIO_Init+0x18c>
        }
        else if(GPIOx == GPIOB)
    25ec:	fcc42703          	lw	a4,-52(s0)
    25f0:	400117b7          	lui	a5,0x40011
    25f4:	c0078793          	addi	a5,a5,-1024 # 40010c00 <_eusrstack+0x2000cc00>
    25f8:	00f71763          	bne	a4,a5,2606 <GPIO_Init+0x178>
        {
            tmpreg = CFGHR_tmpB;
    25fc:	8081a783          	lw	a5,-2040(gp) # 20000028 <CFGHR_tmpB>
    2600:	fef42223          	sw	a5,-28(s0)
    2604:	a819                	j	261a <GPIO_Init+0x18c>
        }
        else if(GPIOx == GPIOC)
    2606:	fcc42703          	lw	a4,-52(s0)
    260a:	400117b7          	lui	a5,0x40011
    260e:	00f71663          	bne	a4,a5,261a <GPIO_Init+0x18c>
        {
            tmpreg = CFGHR_tmpC;
    2612:	80c1a783          	lw	a5,-2036(gp) # 2000002c <CFGHR_tmpC>
    2616:	fef42223          	sw	a5,-28(s0)
        }

        for(pinpos = 0x00; pinpos < 0x08; pinpos++)
    261a:	fe042423          	sw	zero,-24(s0)
    261e:	a865                	j	26d6 <GPIO_Init+0x248>
        {
            pos = (((uint32_t)0x01) << (pinpos + 0x08));
    2620:	fe842783          	lw	a5,-24(s0)
    2624:	07a1                	addi	a5,a5,8
    2626:	4705                	li	a4,1
    2628:	00f717b3          	sll	a5,a4,a5
    262c:	fcf42e23          	sw	a5,-36(s0)
            currentpin = ((GPIO_InitStruct->GPIO_Pin) & pos);
    2630:	fc842783          	lw	a5,-56(s0)
    2634:	439c                	lw	a5,0(a5)
    2636:	fdc42703          	lw	a4,-36(s0)
    263a:	8ff9                	and	a5,a5,a4
    263c:	fef42023          	sw	a5,-32(s0)

            if(currentpin == pos)
    2640:	fe042703          	lw	a4,-32(s0)
    2644:	fdc42783          	lw	a5,-36(s0)
    2648:	08f71263          	bne	a4,a5,26cc <GPIO_Init+0x23e>
            {
                pos = pinpos << 2;
    264c:	fe842783          	lw	a5,-24(s0)
    2650:	078a                	slli	a5,a5,0x2
    2652:	fcf42e23          	sw	a5,-36(s0)
                pinmask = ((uint32_t)0x0F) << pos;
    2656:	fdc42783          	lw	a5,-36(s0)
    265a:	473d                	li	a4,15
    265c:	00f717b3          	sll	a5,a4,a5
    2660:	fcf42c23          	sw	a5,-40(s0)
                tmpreg &= ~pinmask;
    2664:	fd842783          	lw	a5,-40(s0)
    2668:	fff7c793          	not	a5,a5
    266c:	fe442703          	lw	a4,-28(s0)
    2670:	8ff9                	and	a5,a5,a4
    2672:	fef42223          	sw	a5,-28(s0)
                tmpreg |= (currentmode << pos);
    2676:	fdc42783          	lw	a5,-36(s0)
    267a:	fec42703          	lw	a4,-20(s0)
    267e:	00f717b3          	sll	a5,a4,a5
    2682:	fe442703          	lw	a4,-28(s0)
    2686:	8fd9                	or	a5,a5,a4
    2688:	fef42223          	sw	a5,-28(s0)

                if(GPIO_InitStruct->GPIO_Mode == GPIO_Mode_IPD)
    268c:	fc842783          	lw	a5,-56(s0)
    2690:	4798                	lw	a4,8(a5)
    2692:	02800793          	li	a5,40
    2696:	00f71b63          	bne	a4,a5,26ac <GPIO_Init+0x21e>
                {
                    GPIOx->BCR = (((uint32_t)0x01) << (pinpos + 0x08));
    269a:	fe842783          	lw	a5,-24(s0)
    269e:	07a1                	addi	a5,a5,8
    26a0:	4705                	li	a4,1
    26a2:	00f71733          	sll	a4,a4,a5
    26a6:	fcc42783          	lw	a5,-52(s0)
    26aa:	cbd8                	sw	a4,20(a5)
                }

                if(GPIO_InitStruct->GPIO_Mode == GPIO_Mode_IPU)
    26ac:	fc842783          	lw	a5,-56(s0)
    26b0:	4798                	lw	a4,8(a5)
    26b2:	04800793          	li	a5,72
    26b6:	00f71b63          	bne	a4,a5,26cc <GPIO_Init+0x23e>
                {
                    GPIOx->BSHR = (((uint32_t)0x01) << (pinpos + 0x08));
    26ba:	fe842783          	lw	a5,-24(s0)
    26be:	07a1                	addi	a5,a5,8
    26c0:	4705                	li	a4,1
    26c2:	00f71733          	sll	a4,a4,a5
    26c6:	fcc42783          	lw	a5,-52(s0)
    26ca:	cb98                	sw	a4,16(a5)
        for(pinpos = 0x00; pinpos < 0x08; pinpos++)
    26cc:	fe842783          	lw	a5,-24(s0)
    26d0:	0785                	addi	a5,a5,1
    26d2:	fef42423          	sw	a5,-24(s0)
    26d6:	fe842703          	lw	a4,-24(s0)
    26da:	479d                	li	a5,7
    26dc:	f4e7f2e3          	bgeu	a5,a4,2620 <GPIO_Init+0x192>
                }
            }
        }
        GPIOx->CFGHR = tmpreg;
    26e0:	fcc42783          	lw	a5,-52(s0)
    26e4:	fe442703          	lw	a4,-28(s0)
    26e8:	c3d8                	sw	a4,4(a5)

        if(GPIOx == GPIOA)
    26ea:	fcc42703          	lw	a4,-52(s0)
    26ee:	400117b7          	lui	a5,0x40011
    26f2:	80078793          	addi	a5,a5,-2048 # 40010800 <_eusrstack+0x2000c800>
    26f6:	00f71963          	bne	a4,a5,2708 <GPIO_Init+0x27a>
        {
            CFGHR_tmpA = tmpreg;
    26fa:	200007b7          	lui	a5,0x20000
    26fe:	fe442703          	lw	a4,-28(s0)
    2702:	02e7a223          	sw	a4,36(a5) # 20000024 <CFGHR_tmpA>
    2706:	a805                	j	2736 <GPIO_Init+0x2a8>
        }
        else if(GPIOx == GPIOB)
    2708:	fcc42703          	lw	a4,-52(s0)
    270c:	400117b7          	lui	a5,0x40011
    2710:	c0078793          	addi	a5,a5,-1024 # 40010c00 <_eusrstack+0x2000cc00>
    2714:	00f71763          	bne	a4,a5,2722 <GPIO_Init+0x294>
        {
            CFGHR_tmpB = tmpreg;
    2718:	fe442703          	lw	a4,-28(s0)
    271c:	80e1a423          	sw	a4,-2040(gp) # 20000028 <CFGHR_tmpB>
    2720:	a819                	j	2736 <GPIO_Init+0x2a8>
        }
        else if(GPIOx == GPIOC)
    2722:	fcc42703          	lw	a4,-52(s0)
    2726:	400117b7          	lui	a5,0x40011
    272a:	00f71663          	bne	a4,a5,2736 <GPIO_Init+0x2a8>
        {
            CFGHR_tmpC = tmpreg;
    272e:	fe442703          	lw	a4,-28(s0)
    2732:	80e1a623          	sw	a4,-2036(gp) # 2000002c <CFGHR_tmpC>
        }
    }

    if(GPIO_InitStruct->GPIO_Pin > 0x00FFFF)
    2736:	fc842783          	lw	a5,-56(s0)
    273a:	4398                	lw	a4,0(a5)
    273c:	67c1                	lui	a5,0x10
    273e:	0cf76e63          	bltu	a4,a5,281a <GPIO_Init+0x38c>
    {
        tmpreg = GPIOx->CFGXR;
    2742:	fcc42783          	lw	a5,-52(s0)
    2746:	4fdc                	lw	a5,28(a5)
    2748:	fef42223          	sw	a5,-28(s0)

        for(pinpos = 0x00; pinpos < 0x08; pinpos++)
    274c:	fe042423          	sw	zero,-24(s0)
    2750:	a85d                	j	2806 <GPIO_Init+0x378>
        {
            pos = (((uint32_t)0x01) << (pinpos + 0x10));
    2752:	fe842783          	lw	a5,-24(s0)
    2756:	07c1                	addi	a5,a5,16
    2758:	4705                	li	a4,1
    275a:	00f717b3          	sll	a5,a4,a5
    275e:	fcf42e23          	sw	a5,-36(s0)
            currentpin = ((GPIO_InitStruct->GPIO_Pin) & pos);
    2762:	fc842783          	lw	a5,-56(s0)
    2766:	439c                	lw	a5,0(a5)
    2768:	fdc42703          	lw	a4,-36(s0)
    276c:	8ff9                	and	a5,a5,a4
    276e:	fef42023          	sw	a5,-32(s0)

            if(currentpin == pos)
    2772:	fe042703          	lw	a4,-32(s0)
    2776:	fdc42783          	lw	a5,-36(s0)
    277a:	08f71163          	bne	a4,a5,27fc <GPIO_Init+0x36e>
            {
                pos = pinpos << 2;
    277e:	fe842783          	lw	a5,-24(s0)
    2782:	078a                	slli	a5,a5,0x2
    2784:	fcf42e23          	sw	a5,-36(s0)
                pinmask = ((uint32_t)0x0F) << pos;
    2788:	fdc42783          	lw	a5,-36(s0)
    278c:	473d                	li	a4,15
    278e:	00f717b3          	sll	a5,a4,a5
    2792:	fcf42c23          	sw	a5,-40(s0)
                tmpreg &= ~pinmask;
    2796:	fd842783          	lw	a5,-40(s0)
    279a:	fff7c793          	not	a5,a5
    279e:	fe442703          	lw	a4,-28(s0)
    27a2:	8ff9                	and	a5,a5,a4
    27a4:	fef42223          	sw	a5,-28(s0)
                tmpreg |= (currentmode << pos);
    27a8:	fdc42783          	lw	a5,-36(s0)
    27ac:	fec42703          	lw	a4,-20(s0)
    27b0:	00f717b3          	sll	a5,a4,a5
    27b4:	fe442703          	lw	a4,-28(s0)
    27b8:	8fd9                	or	a5,a5,a4
    27ba:	fef42223          	sw	a5,-28(s0)

                if(GPIO_InitStruct->GPIO_Mode == GPIO_Mode_IPD)
    27be:	fc842783          	lw	a5,-56(s0)
    27c2:	4798                	lw	a4,8(a5)
    27c4:	02800793          	li	a5,40
    27c8:	00f71b63          	bne	a4,a5,27de <GPIO_Init+0x350>
                {
                    GPIOx->BCR = (((uint32_t)0x01) << (pinpos + 0x10));
    27cc:	fe842783          	lw	a5,-24(s0)
    27d0:	07c1                	addi	a5,a5,16
    27d2:	4705                	li	a4,1
    27d4:	00f71733          	sll	a4,a4,a5
    27d8:	fcc42783          	lw	a5,-52(s0)
    27dc:	cbd8                	sw	a4,20(a5)
                }

                if(GPIO_InitStruct->GPIO_Mode == GPIO_Mode_IPU)
    27de:	fc842783          	lw	a5,-56(s0)
    27e2:	4798                	lw	a4,8(a5)
    27e4:	04800793          	li	a5,72
    27e8:	00f71a63          	bne	a4,a5,27fc <GPIO_Init+0x36e>
                {
                    GPIOx->BSXR = (((uint32_t)0x01) << (pinpos));
    27ec:	fe842783          	lw	a5,-24(s0)
    27f0:	4705                	li	a4,1
    27f2:	00f71733          	sll	a4,a4,a5
    27f6:	fcc42783          	lw	a5,-52(s0)
    27fa:	d398                	sw	a4,32(a5)
        for(pinpos = 0x00; pinpos < 0x08; pinpos++)
    27fc:	fe842783          	lw	a5,-24(s0)
    2800:	0785                	addi	a5,a5,1
    2802:	fef42423          	sw	a5,-24(s0)
    2806:	fe842703          	lw	a4,-24(s0)
    280a:	479d                	li	a5,7
    280c:	f4e7f3e3          	bgeu	a5,a4,2752 <GPIO_Init+0x2c4>
                }
            }
        }
        GPIOx->CFGXR = tmpreg;
    2810:	fcc42783          	lw	a5,-52(s0)
    2814:	fe442703          	lw	a4,-28(s0)
    2818:	cfd8                	sw	a4,28(a5)
    }
}
    281a:	0001                	nop
    281c:	5472                	lw	s0,60(sp)
    281e:	6121                	addi	sp,sp,64
    2820:	8082                	ret

00002822 <GPIO_StructInit>:
 *      which will be initialized.
 *
 * @return  none
 */
void GPIO_StructInit(GPIO_InitTypeDef *GPIO_InitStruct)
{
    2822:	1101                	addi	sp,sp,-32
    2824:	ce22                	sw	s0,28(sp)
    2826:	1000                	addi	s0,sp,32
    2828:	fea42623          	sw	a0,-20(s0)
    GPIO_InitStruct->GPIO_Pin = GPIO_Pin_All;
    282c:	fec42783          	lw	a5,-20(s0)
    2830:	01000737          	lui	a4,0x1000
    2834:	177d                	addi	a4,a4,-1
    2836:	c398                	sw	a4,0(a5)
    GPIO_InitStruct->GPIO_Speed = GPIO_Speed_50MHz;
    2838:	fec42783          	lw	a5,-20(s0)
    283c:	4705                	li	a4,1
    283e:	c3d8                	sw	a4,4(a5)
    GPIO_InitStruct->GPIO_Mode = GPIO_Mode_IN_FLOATING;
    2840:	fec42783          	lw	a5,-20(s0)
    2844:	4711                	li	a4,4
    2846:	c798                	sw	a4,8(a5)
}
    2848:	0001                	nop
    284a:	4472                	lw	s0,28(sp)
    284c:	6105                	addi	sp,sp,32
    284e:	8082                	ret

00002850 <GPIO_ReadInputDataBit>:
 *             This parameter can be GPIO_Pin_x where x can be (0..23).
 *
 * @return  The input port pin value.
 */
uint8_t GPIO_ReadInputDataBit(GPIO_TypeDef *GPIOx, uint32_t GPIO_Pin)
{
    2850:	7179                	addi	sp,sp,-48
    2852:	d622                	sw	s0,44(sp)
    2854:	1800                	addi	s0,sp,48
    2856:	fca42e23          	sw	a0,-36(s0)
    285a:	fcb42c23          	sw	a1,-40(s0)
    uint8_t bitstatus = 0x00;
    285e:	fe0407a3          	sb	zero,-17(s0)

    if((GPIOx->INDR & GPIO_Pin) != (uint32_t)Bit_RESET)
    2862:	fdc42783          	lw	a5,-36(s0)
    2866:	4798                	lw	a4,8(a5)
    2868:	fd842783          	lw	a5,-40(s0)
    286c:	8ff9                	and	a5,a5,a4
    286e:	c789                	beqz	a5,2878 <GPIO_ReadInputDataBit+0x28>
    {
        bitstatus = (uint8_t)Bit_SET;
    2870:	4785                	li	a5,1
    2872:	fef407a3          	sb	a5,-17(s0)
    2876:	a019                	j	287c <GPIO_ReadInputDataBit+0x2c>
    }
    else
    {
        bitstatus = (uint8_t)Bit_RESET;
    2878:	fe0407a3          	sb	zero,-17(s0)
    }

    return bitstatus;
    287c:	fef44783          	lbu	a5,-17(s0)
}
    2880:	853e                	mv	a0,a5
    2882:	5432                	lw	s0,44(sp)
    2884:	6145                	addi	sp,sp,48
    2886:	8082                	ret

00002888 <GPIO_ReadInputData>:
 * @param   GPIOx - where x can be (A..C) to select the GPIO peripheral.
 *
 * @return  The output port pin value.
 */
uint32_t GPIO_ReadInputData(GPIO_TypeDef *GPIOx)
{
    2888:	7179                	addi	sp,sp,-48
    288a:	d622                	sw	s0,44(sp)
    288c:	1800                	addi	s0,sp,48
    288e:	fca42e23          	sw	a0,-36(s0)
    uint32_t val;

    val = ( uint32_t )GPIOx->INDR;
    2892:	fdc42783          	lw	a5,-36(s0)
    2896:	479c                	lw	a5,8(a5)
    2898:	fef42623          	sw	a5,-20(s0)

    return ( val );
    289c:	fec42783          	lw	a5,-20(s0)
}
    28a0:	853e                	mv	a0,a5
    28a2:	5432                	lw	s0,44(sp)
    28a4:	6145                	addi	sp,sp,48
    28a6:	8082                	ret

000028a8 <GPIO_ReadOutputDataBit>:
 *            This parameter can be GPIO_Pin_x where x can be (0..23).
 *
 * @return  none
 */
uint8_t GPIO_ReadOutputDataBit(GPIO_TypeDef *GPIOx, uint32_t GPIO_Pin)
{
    28a8:	7179                	addi	sp,sp,-48
    28aa:	d622                	sw	s0,44(sp)
    28ac:	1800                	addi	s0,sp,48
    28ae:	fca42e23          	sw	a0,-36(s0)
    28b2:	fcb42c23          	sw	a1,-40(s0)
    uint8_t bitstatus = 0x00;
    28b6:	fe0407a3          	sb	zero,-17(s0)

    if((GPIOx->OUTDR & GPIO_Pin) != (uint32_t)Bit_RESET)
    28ba:	fdc42783          	lw	a5,-36(s0)
    28be:	47d8                	lw	a4,12(a5)
    28c0:	fd842783          	lw	a5,-40(s0)
    28c4:	8ff9                	and	a5,a5,a4
    28c6:	c789                	beqz	a5,28d0 <GPIO_ReadOutputDataBit+0x28>
    {
        bitstatus = (uint8_t)Bit_SET;
    28c8:	4785                	li	a5,1
    28ca:	fef407a3          	sb	a5,-17(s0)
    28ce:	a019                	j	28d4 <GPIO_ReadOutputDataBit+0x2c>
    }
    else
    {
        bitstatus = (uint8_t)Bit_RESET;
    28d0:	fe0407a3          	sb	zero,-17(s0)
    }

    return bitstatus;
    28d4:	fef44783          	lbu	a5,-17(s0)
}
    28d8:	853e                	mv	a0,a5
    28da:	5432                	lw	s0,44(sp)
    28dc:	6145                	addi	sp,sp,48
    28de:	8082                	ret

000028e0 <GPIO_ReadOutputData>:
 * @param   GPIOx - where x can be (A..C) to select the GPIO peripheral.
 *
 * @return  GPIO output port pin value.
 */
uint32_t GPIO_ReadOutputData(GPIO_TypeDef *GPIOx)
{
    28e0:	7179                	addi	sp,sp,-48
    28e2:	d622                	sw	s0,44(sp)
    28e4:	1800                	addi	s0,sp,48
    28e6:	fca42e23          	sw	a0,-36(s0)
    uint32_t val;

    val = ( uint32_t )GPIOx->OUTDR;
    28ea:	fdc42783          	lw	a5,-36(s0)
    28ee:	47dc                	lw	a5,12(a5)
    28f0:	fef42623          	sw	a5,-20(s0)

    return ( val );
    28f4:	fec42783          	lw	a5,-20(s0)
}
    28f8:	853e                	mv	a0,a5
    28fa:	5432                	lw	s0,44(sp)
    28fc:	6145                	addi	sp,sp,48
    28fe:	8082                	ret

00002900 <GPIO_SetBits>:
 *            This parameter can be any combination of GPIO_Pin_x where x can be (0..23).
 *
 * @return  none
 */
void GPIO_SetBits(GPIO_TypeDef *GPIOx, uint32_t GPIO_Pin)
{
    2900:	1101                	addi	sp,sp,-32
    2902:	ce22                	sw	s0,28(sp)
    2904:	1000                	addi	s0,sp,32
    2906:	fea42623          	sw	a0,-20(s0)
    290a:	feb42423          	sw	a1,-24(s0)
    if((GPIO_Pin & ((uint32_t)0x00FFFF)) != 0x00)
    290e:	fe842703          	lw	a4,-24(s0)
    2912:	67c1                	lui	a5,0x10
    2914:	17fd                	addi	a5,a5,-1
    2916:	8ff9                	and	a5,a5,a4
    2918:	c791                	beqz	a5,2924 <GPIO_SetBits+0x24>
    {
        GPIOx->BSHR = GPIO_Pin;
    291a:	fec42783          	lw	a5,-20(s0)
    291e:	fe842703          	lw	a4,-24(s0)
    2922:	cb98                	sw	a4,16(a5)
    }

    if(GPIO_Pin > 0x00FFFF)
    2924:	fe842703          	lw	a4,-24(s0)
    2928:	67c1                	lui	a5,0x10
    292a:	00f76963          	bltu	a4,a5,293c <GPIO_SetBits+0x3c>
    {
        GPIOx->BSXR = (GPIO_Pin>>0x10);
    292e:	fe842783          	lw	a5,-24(s0)
    2932:	0107d713          	srli	a4,a5,0x10
    2936:	fec42783          	lw	a5,-20(s0)
    293a:	d398                	sw	a4,32(a5)
    }
}
    293c:	0001                	nop
    293e:	4472                	lw	s0,28(sp)
    2940:	6105                	addi	sp,sp,32
    2942:	8082                	ret

00002944 <GPIO_ResetBits>:
 *            This parameter can be any combination of GPIO_Pin_x where x can be (0..23).
 *
 * @return  none
 */
void GPIO_ResetBits(GPIO_TypeDef *GPIOx, uint32_t GPIO_Pin)
{
    2944:	1101                	addi	sp,sp,-32
    2946:	ce22                	sw	s0,28(sp)
    2948:	1000                	addi	s0,sp,32
    294a:	fea42623          	sw	a0,-20(s0)
    294e:	feb42423          	sw	a1,-24(s0)
    GPIOx->BCR = GPIO_Pin;
    2952:	fec42783          	lw	a5,-20(s0)
    2956:	fe842703          	lw	a4,-24(s0)
    295a:	cbd8                	sw	a4,20(a5)
}
    295c:	0001                	nop
    295e:	4472                	lw	s0,28(sp)
    2960:	6105                	addi	sp,sp,32
    2962:	8082                	ret

00002964 <GPIO_WriteBit>:
 *            Bit_SET - to set the port pin.
 *
 * @return  none
 */
void GPIO_WriteBit(GPIO_TypeDef *GPIOx, uint32_t GPIO_Pin, BitAction BitVal)
{
    2964:	1101                	addi	sp,sp,-32
    2966:	ce22                	sw	s0,28(sp)
    2968:	1000                	addi	s0,sp,32
    296a:	fea42623          	sw	a0,-20(s0)
    296e:	feb42423          	sw	a1,-24(s0)
    2972:	fec42223          	sw	a2,-28(s0)
    if(BitVal != Bit_RESET)
    2976:	fe442783          	lw	a5,-28(s0)
    297a:	cb8d                	beqz	a5,29ac <GPIO_WriteBit+0x48>
    {
        if((GPIO_Pin & ((uint32_t)0x00FFFF)) != 0x00)
    297c:	fe842703          	lw	a4,-24(s0)
    2980:	67c1                	lui	a5,0x10
    2982:	17fd                	addi	a5,a5,-1
    2984:	8ff9                	and	a5,a5,a4
    2986:	c791                	beqz	a5,2992 <GPIO_WriteBit+0x2e>
        {
            GPIOx->BSHR = GPIO_Pin;
    2988:	fec42783          	lw	a5,-20(s0)
    298c:	fe842703          	lw	a4,-24(s0)
    2990:	cb98                	sw	a4,16(a5)
        }

        if(GPIO_Pin > 0x00FFFF)
    2992:	fe842703          	lw	a4,-24(s0)
    2996:	67c1                	lui	a5,0x10
    2998:	00f76f63          	bltu	a4,a5,29b6 <GPIO_WriteBit+0x52>
        {
            GPIOx->BSXR = (GPIO_Pin>>0x10);
    299c:	fe842783          	lw	a5,-24(s0)
    29a0:	0107d713          	srli	a4,a5,0x10
    29a4:	fec42783          	lw	a5,-20(s0)
    29a8:	d398                	sw	a4,32(a5)
    }
    else
    {
        GPIOx->BCR = GPIO_Pin;
    }
}
    29aa:	a031                	j	29b6 <GPIO_WriteBit+0x52>
        GPIOx->BCR = GPIO_Pin;
    29ac:	fec42783          	lw	a5,-20(s0)
    29b0:	fe842703          	lw	a4,-24(s0)
    29b4:	cbd8                	sw	a4,20(a5)
}
    29b6:	0001                	nop
    29b8:	4472                	lw	s0,28(sp)
    29ba:	6105                	addi	sp,sp,32
    29bc:	8082                	ret

000029be <GPIO_Write>:
 *          PortVal - specifies the value to be written to the port output data register.
 *
 * @return  none
 */
void GPIO_Write(GPIO_TypeDef *GPIOx, uint32_t PortVal)
{
    29be:	1101                	addi	sp,sp,-32
    29c0:	ce22                	sw	s0,28(sp)
    29c2:	1000                	addi	s0,sp,32
    29c4:	fea42623          	sw	a0,-20(s0)
    29c8:	feb42423          	sw	a1,-24(s0)
    GPIOx->OUTDR = PortVal;
    29cc:	fec42783          	lw	a5,-20(s0)
    29d0:	fe842703          	lw	a4,-24(s0)
    29d4:	c7d8                	sw	a4,12(a5)
}
    29d6:	0001                	nop
    29d8:	4472                	lw	s0,28(sp)
    29da:	6105                	addi	sp,sp,32
    29dc:	8082                	ret

000029de <GPIO_PinLockConfig>:
 *            This parameter can be any combination of GPIO_Pin_x where x can be (0..23).
 *
 * @return  none
 */
void GPIO_PinLockConfig(GPIO_TypeDef *GPIOx, uint32_t GPIO_Pin)
{
    29de:	7179                	addi	sp,sp,-48
    29e0:	d622                	sw	s0,44(sp)
    29e2:	1800                	addi	s0,sp,48
    29e4:	fca42e23          	sw	a0,-36(s0)
    29e8:	fcb42c23          	sw	a1,-40(s0)
    uint32_t tmp = 0x01000000;
    29ec:	010007b7          	lui	a5,0x1000
    29f0:	fef42623          	sw	a5,-20(s0)

    tmp |= GPIO_Pin;
    29f4:	fec42703          	lw	a4,-20(s0)
    29f8:	fd842783          	lw	a5,-40(s0)
    29fc:	8fd9                	or	a5,a5,a4
    29fe:	fef42623          	sw	a5,-20(s0)
    GPIOx->LCKR = tmp;
    2a02:	fdc42783          	lw	a5,-36(s0)
    2a06:	fec42703          	lw	a4,-20(s0)
    2a0a:	cf98                	sw	a4,24(a5)
    GPIOx->LCKR = GPIO_Pin;
    2a0c:	fdc42783          	lw	a5,-36(s0)
    2a10:	fd842703          	lw	a4,-40(s0)
    2a14:	cf98                	sw	a4,24(a5)
    GPIOx->LCKR = tmp;
    2a16:	fdc42783          	lw	a5,-36(s0)
    2a1a:	fec42703          	lw	a4,-20(s0)
    2a1e:	cf98                	sw	a4,24(a5)
    tmp = GPIOx->LCKR;
    2a20:	fdc42783          	lw	a5,-36(s0)
    2a24:	4f9c                	lw	a5,24(a5)
    2a26:	fef42623          	sw	a5,-20(s0)
    tmp = GPIOx->LCKR;
    2a2a:	fdc42783          	lw	a5,-36(s0)
    2a2e:	4f9c                	lw	a5,24(a5)
    2a30:	fef42623          	sw	a5,-20(s0)
}
    2a34:	0001                	nop
    2a36:	5432                	lw	s0,44(sp)
    2a38:	6145                	addi	sp,sp,48
    2a3a:	8082                	ret

00002a3c <GPIO_PinRemapConfig>:
 *          NewState - ENABLE or DISABLE.
 *
 * @return  none
 */
void GPIO_PinRemapConfig(uint32_t GPIO_Remap, FunctionalState NewState)
{
    2a3c:	7179                	addi	sp,sp,-48
    2a3e:	d622                	sw	s0,44(sp)
    2a40:	1800                	addi	s0,sp,48
    2a42:	fca42e23          	sw	a0,-36(s0)
    2a46:	fcb42c23          	sw	a1,-40(s0)
    uint32_t tmp = 0x00, tmp1 = 0x00, tmpreg = 0x00, tmpmask = 0x00;
    2a4a:	fe042423          	sw	zero,-24(s0)
    2a4e:	fe042223          	sw	zero,-28(s0)
    2a52:	fe042623          	sw	zero,-20(s0)
    2a56:	fe042023          	sw	zero,-32(s0)

    tmpreg = AFIO->PCFR1;
    2a5a:	400107b7          	lui	a5,0x40010
    2a5e:	43dc                	lw	a5,4(a5)
    2a60:	fef42623          	sw	a5,-20(s0)

    tmpmask = (GPIO_Remap & DBGAFR_POSITION_MASK) >> 0x10;
    2a64:	fdc42783          	lw	a5,-36(s0)
    2a68:	83c1                	srli	a5,a5,0x10
    2a6a:	8bbd                	andi	a5,a5,15
    2a6c:	fef42023          	sw	a5,-32(s0)
    tmp = GPIO_Remap & LSB_MASK;
    2a70:	fdc42703          	lw	a4,-36(s0)
    2a74:	67c1                	lui	a5,0x10
    2a76:	17fd                	addi	a5,a5,-1
    2a78:	8ff9                	and	a5,a5,a4
    2a7a:	fef42423          	sw	a5,-24(s0)

    /* Clear bit */
    if((GPIO_Remap & 0x08000000) == 0x08000000) /* 3bit */
    2a7e:	fdc42703          	lw	a4,-36(s0)
    2a82:	080007b7          	lui	a5,0x8000
    2a86:	8ff9                	and	a5,a5,a4
    2a88:	cfe9                	beqz	a5,2b62 <GPIO_PinRemapConfig+0x126>
    {
        if((GPIO_Remap & (DBGAFR_LOCATION_MASK | DBGAFR_NUMBITS_MASK)) == (DBGAFR_LOCATION_MASK | DBGAFR_NUMBITS_MASK)) /* [26:24] SDI */
    2a8a:	fdc42703          	lw	a4,-36(s0)
    2a8e:	003007b7          	lui	a5,0x300
    2a92:	8f7d                	and	a4,a4,a5
    2a94:	003007b7          	lui	a5,0x300
    2a98:	02f71563          	bne	a4,a5,2ac2 <GPIO_PinRemapConfig+0x86>
        {
            tmpreg &= DBGAFR_SWJCFG_MASK;
    2a9c:	fec42703          	lw	a4,-20(s0)
    2aa0:	f10007b7          	lui	a5,0xf1000
    2aa4:	17fd                	addi	a5,a5,-1
    2aa6:	8ff9                	and	a5,a5,a4
    2aa8:	fef42623          	sw	a5,-20(s0)
            AFIO->PCFR1 &= DBGAFR_SWJCFG_MASK;
    2aac:	400107b7          	lui	a5,0x40010
    2ab0:	43d4                	lw	a3,4(a5)
    2ab2:	400107b7          	lui	a5,0x40010
    2ab6:	f1000737          	lui	a4,0xf1000
    2aba:	177d                	addi	a4,a4,-1
    2abc:	8f75                	and	a4,a4,a3
    2abe:	c3d8                	sw	a4,4(a5)
    2ac0:	a21d                	j	2be6 <GPIO_PinRemapConfig+0x1aa>
        }
        else if((GPIO_Remap & DBGAFR_TIM1RP_MASK) == DBGAFR_TIM1RP_MASK) /* [31:16] 3bit */
    2ac2:	fdc42703          	lw	a4,-36(s0)
    2ac6:	004007b7          	lui	a5,0x400
    2aca:	8ff9                	and	a5,a5,a4
    2acc:	cf9d                	beqz	a5,2b0a <GPIO_PinRemapConfig+0xce>
        {
            tmp1 = ((uint32_t)0x07) << 15;
    2ace:	000387b7          	lui	a5,0x38
    2ad2:	fef42223          	sw	a5,-28(s0)
            tmpreg &= ~tmp1;
    2ad6:	fe442783          	lw	a5,-28(s0)
    2ada:	fff7c793          	not	a5,a5
    2ade:	fec42703          	lw	a4,-20(s0)
    2ae2:	8ff9                	and	a5,a5,a4
    2ae4:	fef42623          	sw	a5,-20(s0)

            if(NewState != DISABLE)
    2ae8:	fd842783          	lw	a5,-40(s0)
    2aec:	cb89                	beqz	a5,2afe <GPIO_PinRemapConfig+0xc2>
            {
                tmpreg |= (tmp << 15);
    2aee:	fe842783          	lw	a5,-24(s0)
    2af2:	07be                	slli	a5,a5,0xf
    2af4:	fec42703          	lw	a4,-20(s0)
    2af8:	8fd9                	or	a5,a5,a4
    2afa:	fef42623          	sw	a5,-20(s0)
            }

            AFIO->PCFR1 = tmpreg;
    2afe:	400107b7          	lui	a5,0x40010
    2b02:	fec42703          	lw	a4,-20(s0)
    2b06:	c3d8                	sw	a4,4(a5)
            return;
    2b08:	a229                	j	2c12 <GPIO_PinRemapConfig+0x1d6>
        }
        else if((GPIO_Remap & (DBGAFR_LOCATION_MASK | DBGAFR_NUMBITS_MASK)) == DBGAFR_LOCATION_MASK) /* [31:16] 3bit */
    2b0a:	fdc42703          	lw	a4,-36(s0)
    2b0e:	003007b7          	lui	a5,0x300
    2b12:	8f7d                	and	a4,a4,a5
    2b14:	002007b7          	lui	a5,0x200
    2b18:	02f71463          	bne	a4,a5,2b40 <GPIO_PinRemapConfig+0x104>
        {
            tmp1 = ((uint32_t)0x07) << (tmpmask + 0x10);
    2b1c:	fe042783          	lw	a5,-32(s0)
    2b20:	07c1                	addi	a5,a5,16
    2b22:	471d                	li	a4,7
    2b24:	00f717b3          	sll	a5,a4,a5
    2b28:	fef42223          	sw	a5,-28(s0)
            tmpreg &= ~tmp1;
    2b2c:	fe442783          	lw	a5,-28(s0)
    2b30:	fff7c793          	not	a5,a5
    2b34:	fec42703          	lw	a4,-20(s0)
    2b38:	8ff9                	and	a5,a5,a4
    2b3a:	fef42623          	sw	a5,-20(s0)
    2b3e:	a065                	j	2be6 <GPIO_PinRemapConfig+0x1aa>
        }
        else /* [15:0] 3bit */
        {
            tmp1 = ((uint32_t)0x07) << tmpmask;
    2b40:	fe042783          	lw	a5,-32(s0)
    2b44:	471d                	li	a4,7
    2b46:	00f717b3          	sll	a5,a4,a5
    2b4a:	fef42223          	sw	a5,-28(s0)
            tmpreg &= ~tmp1;
    2b4e:	fe442783          	lw	a5,-28(s0)
    2b52:	fff7c793          	not	a5,a5
    2b56:	fec42703          	lw	a4,-20(s0)
    2b5a:	8ff9                	and	a5,a5,a4
    2b5c:	fef42623          	sw	a5,-20(s0)
    2b60:	a059                	j	2be6 <GPIO_PinRemapConfig+0x1aa>
        }
    }
    else
    {
        if((GPIO_Remap & (DBGAFR_LOCATION_MASK | DBGAFR_NUMBITS_MASK)) == (DBGAFR_LOCATION_MASK | DBGAFR_NUMBITS_MASK)) /* [31:16] 2bit */
    2b62:	fdc42703          	lw	a4,-36(s0)
    2b66:	003007b7          	lui	a5,0x300
    2b6a:	8f7d                	and	a4,a4,a5
    2b6c:	003007b7          	lui	a5,0x300
    2b70:	02f71463          	bne	a4,a5,2b98 <GPIO_PinRemapConfig+0x15c>
        {
            tmp1 = ((uint32_t)0x03) << (tmpmask + 0x10);
    2b74:	fe042783          	lw	a5,-32(s0)
    2b78:	07c1                	addi	a5,a5,16
    2b7a:	470d                	li	a4,3
    2b7c:	00f717b3          	sll	a5,a4,a5
    2b80:	fef42223          	sw	a5,-28(s0)
            tmpreg &= ~tmp1;
    2b84:	fe442783          	lw	a5,-28(s0)
    2b88:	fff7c793          	not	a5,a5
    2b8c:	fec42703          	lw	a4,-20(s0)
    2b90:	8ff9                	and	a5,a5,a4
    2b92:	fef42623          	sw	a5,-20(s0)
    2b96:	a881                	j	2be6 <GPIO_PinRemapConfig+0x1aa>
        }
        else if((GPIO_Remap & DBGAFR_NUMBITS_MASK) == DBGAFR_NUMBITS_MASK) /* [15:0] 2bit */
    2b98:	fdc42703          	lw	a4,-36(s0)
    2b9c:	001007b7          	lui	a5,0x100
    2ba0:	8ff9                	and	a5,a5,a4
    2ba2:	c395                	beqz	a5,2bc6 <GPIO_PinRemapConfig+0x18a>
        {
            tmp1 = ((uint32_t)0x03) << tmpmask;
    2ba4:	fe042783          	lw	a5,-32(s0)
    2ba8:	470d                	li	a4,3
    2baa:	00f717b3          	sll	a5,a4,a5
    2bae:	fef42223          	sw	a5,-28(s0)
            tmpreg &= ~tmp1;
    2bb2:	fe442783          	lw	a5,-28(s0)
    2bb6:	fff7c793          	not	a5,a5
    2bba:	fec42703          	lw	a4,-20(s0)
    2bbe:	8ff9                	and	a5,a5,a4
    2bc0:	fef42623          	sw	a5,-20(s0)
    2bc4:	a00d                	j	2be6 <GPIO_PinRemapConfig+0x1aa>
        }
        else /* [31:0] 1bit */
        {
            tmpreg &= ~(tmp << (((GPIO_Remap & 0x00FFFFFF ) >> 0x15) * 0x10));
    2bc6:	fdc42783          	lw	a5,-36(s0)
    2bca:	83d5                	srli	a5,a5,0x15
    2bcc:	8b9d                	andi	a5,a5,7
    2bce:	0792                	slli	a5,a5,0x4
    2bd0:	fe842703          	lw	a4,-24(s0)
    2bd4:	00f717b3          	sll	a5,a4,a5
    2bd8:	fff7c793          	not	a5,a5
    2bdc:	fec42703          	lw	a4,-20(s0)
    2be0:	8ff9                	and	a5,a5,a4
    2be2:	fef42623          	sw	a5,-20(s0)
        }
    }

    /* Set bit */
    if(NewState != DISABLE)
    2be6:	fd842783          	lw	a5,-40(s0)
    2bea:	cf99                	beqz	a5,2c08 <GPIO_PinRemapConfig+0x1cc>
    {
        tmpreg |= (tmp << (((GPIO_Remap & 0x00FFFFFF )>> 0x15) * 0x10));
    2bec:	fdc42783          	lw	a5,-36(s0)
    2bf0:	83d5                	srli	a5,a5,0x15
    2bf2:	8b9d                	andi	a5,a5,7
    2bf4:	0792                	slli	a5,a5,0x4
    2bf6:	fe842703          	lw	a4,-24(s0)
    2bfa:	00f717b3          	sll	a5,a4,a5
    2bfe:	fec42703          	lw	a4,-20(s0)
    2c02:	8fd9                	or	a5,a5,a4
    2c04:	fef42623          	sw	a5,-20(s0)
    }

    AFIO->PCFR1 = tmpreg;
    2c08:	400107b7          	lui	a5,0x40010
    2c0c:	fec42703          	lw	a4,-20(s0)
    2c10:	c3d8                	sw	a4,4(a5)
}
    2c12:	5432                	lw	s0,44(sp)
    2c14:	6145                	addi	sp,sp,48
    2c16:	8082                	ret

00002c18 <GPIO_EXTILineConfig>:
 *            This parameter can be GPIO_PinSourcex where x can be (0..23).
 *
 * @return  none
 */
void GPIO_EXTILineConfig(uint8_t GPIO_PortSource, uint16_t GPIO_PinSource)
{
    2c18:	7179                	addi	sp,sp,-48
    2c1a:	d622                	sw	s0,44(sp)
    2c1c:	1800                	addi	s0,sp,48
    2c1e:	87aa                	mv	a5,a0
    2c20:	872e                	mv	a4,a1
    2c22:	fcf40fa3          	sb	a5,-33(s0)
    2c26:	87ba                	mv	a5,a4
    2c28:	fcf41e23          	sh	a5,-36(s0)
    uint32_t tmp = 0x00;
    2c2c:	fe042623          	sw	zero,-20(s0)

    tmp = ((uint32_t)0x03) << (0x02 * (GPIO_PinSource & (uint8_t)0x0F));
    2c30:	fdc45783          	lhu	a5,-36(s0)
    2c34:	8bbd                	andi	a5,a5,15
    2c36:	0786                	slli	a5,a5,0x1
    2c38:	470d                	li	a4,3
    2c3a:	00f717b3          	sll	a5,a4,a5
    2c3e:	fef42623          	sw	a5,-20(s0)
    AFIO->EXTICR[GPIO_PinSource >> 0x04] &= ~tmp;
    2c42:	40010737          	lui	a4,0x40010
    2c46:	fdc45783          	lhu	a5,-36(s0)
    2c4a:	8391                	srli	a5,a5,0x4
    2c4c:	07c2                	slli	a5,a5,0x10
    2c4e:	83c1                	srli	a5,a5,0x10
    2c50:	078a                	slli	a5,a5,0x2
    2c52:	97ba                	add	a5,a5,a4
    2c54:	4798                	lw	a4,8(a5)
    2c56:	fec42783          	lw	a5,-20(s0)
    2c5a:	fff7c793          	not	a5,a5
    2c5e:	400106b7          	lui	a3,0x40010
    2c62:	fdc45603          	lhu	a2,-36(s0)
    2c66:	8211                	srli	a2,a2,0x4
    2c68:	0642                	slli	a2,a2,0x10
    2c6a:	8241                	srli	a2,a2,0x10
    2c6c:	8f7d                	and	a4,a4,a5
    2c6e:	00261793          	slli	a5,a2,0x2
    2c72:	97b6                	add	a5,a5,a3
    2c74:	c798                	sw	a4,8(a5)
    AFIO->EXTICR[GPIO_PinSource >> 0x04] |= (((uint32_t)GPIO_PortSource) << (0x02 * (GPIO_PinSource & (uint8_t)0x0F)));
    2c76:	40010737          	lui	a4,0x40010
    2c7a:	fdc45783          	lhu	a5,-36(s0)
    2c7e:	8391                	srli	a5,a5,0x4
    2c80:	07c2                	slli	a5,a5,0x10
    2c82:	83c1                	srli	a5,a5,0x10
    2c84:	078a                	slli	a5,a5,0x2
    2c86:	97ba                	add	a5,a5,a4
    2c88:	4798                	lw	a4,8(a5)
    2c8a:	fdf44683          	lbu	a3,-33(s0)
    2c8e:	fdc45783          	lhu	a5,-36(s0)
    2c92:	8bbd                	andi	a5,a5,15
    2c94:	0786                	slli	a5,a5,0x1
    2c96:	00f697b3          	sll	a5,a3,a5
    2c9a:	400106b7          	lui	a3,0x40010
    2c9e:	fdc45603          	lhu	a2,-36(s0)
    2ca2:	8211                	srli	a2,a2,0x4
    2ca4:	0642                	slli	a2,a2,0x10
    2ca6:	8241                	srli	a2,a2,0x10
    2ca8:	8f5d                	or	a4,a4,a5
    2caa:	00261793          	slli	a5,a2,0x2
    2cae:	97b6                	add	a5,a5,a3
    2cb0:	c798                	sw	a4,8(a5)
}
    2cb2:	0001                	nop
    2cb4:	5432                	lw	s0,44(sp)
    2cb6:	6145                	addi	sp,sp,48
    2cb8:	8082                	ret

00002cba <GPIO_IPD_Unused>:
 * @param   none
 *
 * @return  none
 */
void GPIO_IPD_Unused(void)
{
    2cba:	1101                	addi	sp,sp,-32
    2cbc:	ce06                	sw	ra,28(sp)
    2cbe:	cc22                	sw	s0,24(sp)
    2cc0:	1000                	addi	s0,sp,32
    GPIO_InitTypeDef GPIO_InitStructure = {0};
    2cc2:	fe042023          	sw	zero,-32(s0)
    2cc6:	fe042223          	sw	zero,-28(s0)
    2cca:	fe042423          	sw	zero,-24(s0)
    uint32_t chip = 0;
    2cce:	fe042623          	sw	zero,-20(s0)
    RCC_APB2PeriphClockCmd(RCC_APB2Periph_GPIOA | RCC_APB2Periph_GPIOB | RCC_APB2Periph_GPIOC, ENABLE);
    2cd2:	4585                	li	a1,1
    2cd4:	4571                	li	a0,28
    2cd6:	5e3010ef          	jal	ra,4ab8 <RCC_APB2PeriphClockCmd>
    chip =  *( uint32_t * )0x1FFFF704 & (~0x00000011);
    2cda:	1ffff7b7          	lui	a5,0x1ffff
    2cde:	70478793          	addi	a5,a5,1796 # 1ffff704 <_data_lma+0x1fff04f8>
    2ce2:	439c                	lw	a5,0(a5)
    2ce4:	9bb9                	andi	a5,a5,-18
    2ce6:	fef42623          	sw	a5,-20(s0)
    2cea:	fec42703          	lw	a4,-20(s0)
    2cee:	035607b7          	lui	a5,0x3560
    2cf2:	60078793          	addi	a5,a5,1536 # 3560600 <_data_lma+0x35513f4>
    2cf6:	0af70363          	beq	a4,a5,2d9c <GPIO_IPD_Unused+0xe2>
    2cfa:	fec42703          	lw	a4,-20(s0)
    2cfe:	035607b7          	lui	a5,0x3560
    2d02:	60078793          	addi	a5,a5,1536 # 3560600 <_data_lma+0x35513f4>
    2d06:	02e7e163          	bltu	a5,a4,2d28 <GPIO_IPD_Unused+0x6e>
    2d0a:	fec42703          	lw	a4,-20(s0)
    2d0e:	031177b7          	lui	a5,0x3117
    2d12:	22f70a63          	beq	a4,a5,2f46 <GPIO_IPD_Unused+0x28c>
    2d16:	fec42703          	lw	a4,-20(s0)
    2d1a:	035107b7          	lui	a5,0x3510
    2d1e:	60078793          	addi	a5,a5,1536 # 3510600 <_data_lma+0x35013f4>
    2d22:	02f70c63          	beq	a4,a5,2d5a <GPIO_IPD_Unused+0xa0>
            GPIO_Init(GPIOC, &GPIO_InitStructure);
            break;
        }
        default:
        {
            break;
    2d26:	ac41                	j	2fb6 <GPIO_IPD_Unused+0x2fc>
    2d28:	fec42703          	lw	a4,-20(s0)
    2d2c:	035b07b7          	lui	a5,0x35b0
    2d30:	60078793          	addi	a5,a5,1536 # 35b0600 <_data_lma+0x35a13f4>
    2d34:	0cf70963          	beq	a4,a5,2e06 <GPIO_IPD_Unused+0x14c>
    2d38:	fec42703          	lw	a4,-20(s0)
    2d3c:	035e07b7          	lui	a5,0x35e0
    2d40:	60078793          	addi	a5,a5,1536 # 35e0600 <_data_lma+0x35d13f4>
    2d44:	12f70663          	beq	a4,a5,2e70 <GPIO_IPD_Unused+0x1b6>
    2d48:	fec42703          	lw	a4,-20(s0)
    2d4c:	035707b7          	lui	a5,0x3570
    2d50:	60078793          	addi	a5,a5,1536 # 3570600 <_data_lma+0x35613f4>
    2d54:	18f70463          	beq	a4,a5,2edc <GPIO_IPD_Unused+0x222>
    2d58:	acb9                	j	2fb6 <GPIO_IPD_Unused+0x2fc>
            GPIO_InitStructure.GPIO_Pin = GPIO_Pin_14|GPIO_Pin_15\
    2d5a:	003fc7b7          	lui	a5,0x3fc
    2d5e:	fef42023          	sw	a5,-32(s0)
            GPIO_InitStructure.GPIO_Mode = GPIO_Mode_IPU;
    2d62:	04800793          	li	a5,72
    2d66:	fef42423          	sw	a5,-24(s0)
            GPIO_Init(GPIOB, &GPIO_InitStructure);
    2d6a:	fe040793          	addi	a5,s0,-32
    2d6e:	85be                	mv	a1,a5
    2d70:	400117b7          	lui	a5,0x40011
    2d74:	c0078513          	addi	a0,a5,-1024 # 40010c00 <_eusrstack+0x2000cc00>
    2d78:	f16ff0ef          	jal	ra,248e <GPIO_Init>
            GPIO_InitStructure.GPIO_Pin = GPIO_Pin_0|GPIO_Pin_1\
    2d7c:	03f00793          	li	a5,63
    2d80:	fef42023          	sw	a5,-32(s0)
            GPIO_InitStructure.GPIO_Mode = GPIO_Mode_IPU;
    2d84:	04800793          	li	a5,72
    2d88:	fef42423          	sw	a5,-24(s0)
            GPIO_Init(GPIOC, &GPIO_InitStructure);
    2d8c:	fe040793          	addi	a5,s0,-32
    2d90:	85be                	mv	a1,a5
    2d92:	40011537          	lui	a0,0x40011
    2d96:	ef8ff0ef          	jal	ra,248e <GPIO_Init>
            break;
    2d9a:	ac31                	j	2fb6 <GPIO_IPD_Unused+0x2fc>
            GPIO_InitStructure.GPIO_Pin = GPIO_Pin_16|GPIO_Pin_15\
    2d9c:	010007b7          	lui	a5,0x1000
    2da0:	f0078793          	addi	a5,a5,-256 # ffff00 <_data_lma+0xff0cf4>
    2da4:	fef42023          	sw	a5,-32(s0)
            GPIO_InitStructure.GPIO_Mode = GPIO_Mode_IPU;
    2da8:	04800793          	li	a5,72
    2dac:	fef42423          	sw	a5,-24(s0)
            GPIO_Init(GPIOA, &GPIO_InitStructure);
    2db0:	fe040793          	addi	a5,s0,-32
    2db4:	85be                	mv	a1,a5
    2db6:	400117b7          	lui	a5,0x40011
    2dba:	80078513          	addi	a0,a5,-2048 # 40010800 <_eusrstack+0x2000c800>
    2dbe:	ed0ff0ef          	jal	ra,248e <GPIO_Init>
            GPIO_InitStructure.GPIO_Pin = GPIO_Pin_2|GPIO_Pin_13\
    2dc2:	003fe7b7          	lui	a5,0x3fe
    2dc6:	0791                	addi	a5,a5,4
    2dc8:	fef42023          	sw	a5,-32(s0)
            GPIO_InitStructure.GPIO_Mode = GPIO_Mode_IPU;
    2dcc:	04800793          	li	a5,72
    2dd0:	fef42423          	sw	a5,-24(s0)
            GPIO_Init(GPIOB, &GPIO_InitStructure);
    2dd4:	fe040793          	addi	a5,s0,-32
    2dd8:	85be                	mv	a1,a5
    2dda:	400117b7          	lui	a5,0x40011
    2dde:	c0078513          	addi	a0,a5,-1024 # 40010c00 <_eusrstack+0x2000cc00>
    2de2:	eacff0ef          	jal	ra,248e <GPIO_Init>
            GPIO_InitStructure.GPIO_Pin = GPIO_Pin_1|GPIO_Pin_2\
    2de6:	0f600793          	li	a5,246
    2dea:	fef42023          	sw	a5,-32(s0)
            GPIO_InitStructure.GPIO_Mode = GPIO_Mode_IPU;
    2dee:	04800793          	li	a5,72
    2df2:	fef42423          	sw	a5,-24(s0)
            GPIO_Init(GPIOC, &GPIO_InitStructure);
    2df6:	fe040793          	addi	a5,s0,-32
    2dfa:	85be                	mv	a1,a5
    2dfc:	40011537          	lui	a0,0x40011
    2e00:	e8eff0ef          	jal	ra,248e <GPIO_Init>
            break;
    2e04:	aa4d                	j	2fb6 <GPIO_IPD_Unused+0x2fc>
            GPIO_InitStructure.GPIO_Pin = GPIO_Pin_16|GPIO_Pin_15\
    2e06:	00ffd7b7          	lui	a5,0xffd
    2e0a:	f0078793          	addi	a5,a5,-256 # ffcf00 <_data_lma+0xfedcf4>
    2e0e:	fef42023          	sw	a5,-32(s0)
            GPIO_InitStructure.GPIO_Mode = GPIO_Mode_IPU;
    2e12:	04800793          	li	a5,72
    2e16:	fef42423          	sw	a5,-24(s0)
            GPIO_Init(GPIOA, &GPIO_InitStructure);
    2e1a:	fe040793          	addi	a5,s0,-32
    2e1e:	85be                	mv	a1,a5
    2e20:	400117b7          	lui	a5,0x40011
    2e24:	80078513          	addi	a0,a5,-2048 # 40010800 <_eusrstack+0x2000c800>
    2e28:	e66ff0ef          	jal	ra,248e <GPIO_Init>
            GPIO_InitStructure.GPIO_Pin = GPIO_Pin_2|GPIO_Pin_13\
    2e2c:	003fe7b7          	lui	a5,0x3fe
    2e30:	0791                	addi	a5,a5,4
    2e32:	fef42023          	sw	a5,-32(s0)
            GPIO_InitStructure.GPIO_Mode = GPIO_Mode_IPU;
    2e36:	04800793          	li	a5,72
    2e3a:	fef42423          	sw	a5,-24(s0)
            GPIO_Init(GPIOB, &GPIO_InitStructure);
    2e3e:	fe040793          	addi	a5,s0,-32
    2e42:	85be                	mv	a1,a5
    2e44:	400117b7          	lui	a5,0x40011
    2e48:	c0078513          	addi	a0,a5,-1024 # 40010c00 <_eusrstack+0x2000cc00>
    2e4c:	e42ff0ef          	jal	ra,248e <GPIO_Init>
            GPIO_InitStructure.GPIO_Pin = GPIO_Pin_0|GPIO_Pin_1|GPIO_Pin_2|GPIO_Pin_4|GPIO_Pin_5\
    2e50:	0f700793          	li	a5,247
    2e54:	fef42023          	sw	a5,-32(s0)
            GPIO_InitStructure.GPIO_Mode = GPIO_Mode_IPU;
    2e58:	04800793          	li	a5,72
    2e5c:	fef42423          	sw	a5,-24(s0)
            GPIO_Init(GPIOC, &GPIO_InitStructure);
    2e60:	fe040793          	addi	a5,s0,-32
    2e64:	85be                	mv	a1,a5
    2e66:	40011537          	lui	a0,0x40011
    2e6a:	e24ff0ef          	jal	ra,248e <GPIO_Init>
            break;
    2e6e:	a2a1                	j	2fb6 <GPIO_IPD_Unused+0x2fc>
            GPIO_InitStructure.GPIO_Pin = GPIO_Pin_16|GPIO_Pin_15\
    2e70:	010007b7          	lui	a5,0x1000
    2e74:	f0078793          	addi	a5,a5,-256 # ffff00 <_data_lma+0xff0cf4>
    2e78:	fef42023          	sw	a5,-32(s0)
            GPIO_InitStructure.GPIO_Mode = GPIO_Mode_IPU;
    2e7c:	04800793          	li	a5,72
    2e80:	fef42423          	sw	a5,-24(s0)
            GPIO_Init(GPIOA, &GPIO_InitStructure);
    2e84:	fe040793          	addi	a5,s0,-32
    2e88:	85be                	mv	a1,a5
    2e8a:	400117b7          	lui	a5,0x40011
    2e8e:	80078513          	addi	a0,a5,-2048 # 40010800 <_eusrstack+0x2000c800>
    2e92:	dfcff0ef          	jal	ra,248e <GPIO_Init>
            GPIO_InitStructure.GPIO_Pin = GPIO_Pin_2|GPIO_Pin_9\
    2e96:	003fe7b7          	lui	a5,0x3fe
    2e9a:	7f478793          	addi	a5,a5,2036 # 3fe7f4 <_data_lma+0x3ef5e8>
    2e9e:	fef42023          	sw	a5,-32(s0)
            GPIO_InitStructure.GPIO_Mode = GPIO_Mode_IPU;
    2ea2:	04800793          	li	a5,72
    2ea6:	fef42423          	sw	a5,-24(s0)
            GPIO_Init(GPIOB, &GPIO_InitStructure);
    2eaa:	fe040793          	addi	a5,s0,-32
    2eae:	85be                	mv	a1,a5
    2eb0:	400117b7          	lui	a5,0x40011
    2eb4:	c0078513          	addi	a0,a5,-1024 # 40010c00 <_eusrstack+0x2000cc00>
    2eb8:	dd6ff0ef          	jal	ra,248e <GPIO_Init>
            GPIO_InitStructure.GPIO_Pin = GPIO_Pin_0|GPIO_Pin_1\
    2ebc:	0ff00793          	li	a5,255
    2ec0:	fef42023          	sw	a5,-32(s0)
            GPIO_InitStructure.GPIO_Mode = GPIO_Mode_IPU;
    2ec4:	04800793          	li	a5,72
    2ec8:	fef42423          	sw	a5,-24(s0)
            GPIO_Init(GPIOC, &GPIO_InitStructure);
    2ecc:	fe040793          	addi	a5,s0,-32
    2ed0:	85be                	mv	a1,a5
    2ed2:	40011537          	lui	a0,0x40011
    2ed6:	db8ff0ef          	jal	ra,248e <GPIO_Init>
            break;
    2eda:	a8f1                	j	2fb6 <GPIO_IPD_Unused+0x2fc>
            GPIO_InitStructure.GPIO_Pin = GPIO_Pin_8|GPIO_Pin_9\
    2edc:	010007b7          	lui	a5,0x1000
    2ee0:	f0078793          	addi	a5,a5,-256 # ffff00 <_data_lma+0xff0cf4>
    2ee4:	fef42023          	sw	a5,-32(s0)
            GPIO_InitStructure.GPIO_Mode = GPIO_Mode_IPU;
    2ee8:	04800793          	li	a5,72
    2eec:	fef42423          	sw	a5,-24(s0)
            GPIO_Init(GPIOA, &GPIO_InitStructure);
    2ef0:	fe040793          	addi	a5,s0,-32
    2ef4:	85be                	mv	a1,a5
    2ef6:	400117b7          	lui	a5,0x40011
    2efa:	80078513          	addi	a0,a5,-2048 # 40010800 <_eusrstack+0x2000c800>
    2efe:	d90ff0ef          	jal	ra,248e <GPIO_Init>
            GPIO_InitStructure.GPIO_Pin = GPIO_Pin_0|GPIO_Pin_2\
    2f02:	003ff7b7          	lui	a5,0x3ff
    2f06:	17f5                	addi	a5,a5,-3
    2f08:	fef42023          	sw	a5,-32(s0)
            GPIO_InitStructure.GPIO_Mode = GPIO_Mode_IPU;
    2f0c:	04800793          	li	a5,72
    2f10:	fef42423          	sw	a5,-24(s0)
            GPIO_Init(GPIOB, &GPIO_InitStructure);
    2f14:	fe040793          	addi	a5,s0,-32
    2f18:	85be                	mv	a1,a5
    2f1a:	400117b7          	lui	a5,0x40011
    2f1e:	c0078513          	addi	a0,a5,-1024 # 40010c00 <_eusrstack+0x2000cc00>
    2f22:	d6cff0ef          	jal	ra,248e <GPIO_Init>
            GPIO_InitStructure.GPIO_Pin = GPIO_Pin_0\
    2f26:	0fd00793          	li	a5,253
    2f2a:	fef42023          	sw	a5,-32(s0)
            GPIO_InitStructure.GPIO_Mode = GPIO_Mode_IPU;
    2f2e:	04800793          	li	a5,72
    2f32:	fef42423          	sw	a5,-24(s0)
            GPIO_Init(GPIOC, &GPIO_InitStructure);
    2f36:	fe040793          	addi	a5,s0,-32
    2f3a:	85be                	mv	a1,a5
    2f3c:	40011537          	lui	a0,0x40011
    2f40:	d4eff0ef          	jal	ra,248e <GPIO_Init>
            break;
    2f44:	a88d                	j	2fb6 <GPIO_IPD_Unused+0x2fc>
            GPIO_InitStructure.GPIO_Pin = GPIO_Pin_16|GPIO_Pin_15\
    2f46:	00fff7b7          	lui	a5,0xfff
    2f4a:	10078793          	addi	a5,a5,256 # fff100 <_data_lma+0xfefef4>
    2f4e:	fef42023          	sw	a5,-32(s0)
            GPIO_InitStructure.GPIO_Mode = GPIO_Mode_IPU;
    2f52:	04800793          	li	a5,72
    2f56:	fef42423          	sw	a5,-24(s0)
            GPIO_Init(GPIOA, &GPIO_InitStructure);
    2f5a:	fe040793          	addi	a5,s0,-32
    2f5e:	85be                	mv	a1,a5
    2f60:	400117b7          	lui	a5,0x40011
    2f64:	80078513          	addi	a0,a5,-2048 # 40010800 <_eusrstack+0x2000c800>
    2f68:	d26ff0ef          	jal	ra,248e <GPIO_Init>
            GPIO_InitStructure.GPIO_Pin = GPIO_Pin_2|GPIO_Pin_3\
    2f6c:	010007b7          	lui	a5,0x1000
    2f70:	f7c78793          	addi	a5,a5,-132 # ffff7c <_data_lma+0xff0d70>
    2f74:	fef42023          	sw	a5,-32(s0)
            GPIO_InitStructure.GPIO_Mode = GPIO_Mode_IPU;
    2f78:	04800793          	li	a5,72
    2f7c:	fef42423          	sw	a5,-24(s0)
            GPIO_Init(GPIOB, &GPIO_InitStructure);
    2f80:	fe040793          	addi	a5,s0,-32
    2f84:	85be                	mv	a1,a5
    2f86:	400117b7          	lui	a5,0x40011
    2f8a:	c0078513          	addi	a0,a5,-1024 # 40010c00 <_eusrstack+0x2000cc00>
    2f8e:	d00ff0ef          	jal	ra,248e <GPIO_Init>
            GPIO_InitStructure.GPIO_Pin = GPIO_Pin_0|GPIO_Pin_1|GPIO_Pin_2\
    2f92:	00f0f7b7          	lui	a5,0xf0f
    2f96:	3f778793          	addi	a5,a5,1015 # f0f3f7 <_data_lma+0xf001eb>
    2f9a:	fef42023          	sw	a5,-32(s0)
            GPIO_InitStructure.GPIO_Mode = GPIO_Mode_IPU;
    2f9e:	04800793          	li	a5,72
    2fa2:	fef42423          	sw	a5,-24(s0)
            GPIO_Init(GPIOC, &GPIO_InitStructure);
    2fa6:	fe040793          	addi	a5,s0,-32
    2faa:	85be                	mv	a1,a5
    2fac:	40011537          	lui	a0,0x40011
    2fb0:	cdeff0ef          	jal	ra,248e <GPIO_Init>
            break;
    2fb4:	0001                	nop
        }

    }

}
    2fb6:	0001                	nop
    2fb8:	40f2                	lw	ra,28(sp)
    2fba:	4462                	lw	s0,24(sp)
